(dp0
S'METTS MARK'
p1
(dp2
S'expenses_log'
p3
F11.454236468621549
sS'to_messages'
p4
I807
sS'deferral_payments'
p5
S'NaN'
p6
sS'bonus_log'
p7
F13.304686600863562
sS'expenses'
p8
I94299
sS'poi'
p9
I00
sS'deferred_income'
p10
g6
sS'restricted_stock_log'
p11
F13.279474812723286
sS'email_address'
p12
S'mark.metts@enron.com'
p13
sS'long_term_incentive'
p14
g6
sS'restricted_stock_deferred_log'
p15
S'NaN'
p16
sS'salary_log'
p17
F12.809811943409667
sS'restricted_stock_deferred'
p18
g6
sS'director_fees_log'
p19
g16
sS'shared_receipt_with_poi'
p20
I702
sS'loan_advances'
p21
g6
sS'from_messages'
p22
I29
sS'other'
p23
I1740
sS'exercised_stock_options_log'
p24
g16
sS'director_fees'
p25
g6
sS'total_stock_value_log'
p26
F13.279474812723286
sS'bonus'
p27
I600000
sS'total_stock_value'
p28
I585062
sS'from_poi_to_this_person'
p29
I38
sS'deferral_payments_log'
p30
g16
sS'from_this_person_to_poi'
p31
I1
sS'total_payments_log'
p32
F13.875502509098578
sS'restricted_stock'
p33
I585062
sS'long_term_incentive_log'
p34
g16
sS'salary'
p35
I365788
sS'name'
p36
g1
sS'total_payments'
p37
I1061827
sS'poi_ratio_messages'
p38
F0.8863636363636364
sS'exercised_stock_options'
p39
g6
sS'loan_advances_log'
p40
g16
sS'deferred_income_log'
p41
g16
ssS'BAXTER JOHN C'
p42
(dp43
S'expenses_log'
p44
F9.32375833901174
sg4
g6
sg5
I1295738
sS'bonus_log'
p45
F13.997832948091215
sg8
I11200
sg9
I00
sg10
I-1386055
sS'restricted_stock_log'
p46
F15.187380130257585
sg12
g6
sg14
I1586055
sS'restricted_stock_deferred_log'
p47
g16
sS'salary_log'
p48
F12.495389630783386
sg18
g6
sS'director_fees_log'
p49
g16
sg20
g6
sg21
g6
sg22
g6
sg23
I2660303
sS'exercised_stock_options_log'
p50
F15.714710129011152
sg25
g6
sS'total_stock_value_log'
p51
F16.1785564005249
sg27
I1200000
sg28
I10623258
sg29
g6
sS'deferral_payments_log'
p52
F14.074591746724003
sg31
g6
sS'total_payments_log'
p53
F15.544391283417474
sg33
I3942714
sS'long_term_incentive_log'
p54
F14.276760989506926
sg35
I267102
sg36
g42
sg37
I5634343
sg38
g16
sg39
I6680544
sS'loan_advances_log'
p55
g16
sS'deferred_income_log'
p56
g16
ssS'ELLIOTT STEVEN'
p57
(dp58
S'expenses_log'
p59
F11.271528835188708
sg4
g6
sg5
g6
sS'bonus_log'
p60
F12.765691290604371
sg8
I78552
sg9
I00
sg10
I-400729
sS'restricted_stock_log'
p61
F14.396827450059758
sg12
S'steven.elliott@enron.com'
p62
sg14
g6
sS'restricted_stock_deferred_log'
p63
g16
sS'salary_log'
p64
F12.049079596663264
sg18
g6
sS'director_fees_log'
p65
g16
sg20
g6
sg21
g6
sg22
g6
sg23
I12961
sS'exercised_stock_options_log'
p66
F15.402773411109608
sg25
g6
sS'total_stock_value_log'
p67
F15.714439306051284
sg27
I350000
sg28
I6678735
sg29
g6
sS'deferral_payments_log'
p68
g16
sg31
g6
sS'total_payments_log'
p69
F12.26304826488645
sg33
I1788391
sS'long_term_incentive_log'
p70
g16
sg35
I170941
sg36
g57
sg37
I211725
sg38
g16
sg39
I4890344
sS'loan_advances_log'
p71
g16
sS'deferred_income_log'
p72
g16
ssS'CORDES WILLIAM R'
p73
(dp74
S'expenses_log'
p75
g16
sg4
I764
sg5
g6
sS'bonus_log'
p76
g16
sg8
g6
sg9
I00
sg10
g6
sS'restricted_stock_log'
p77
F12.864462736132113
sg12
S'bill.cordes@enron.com'
p78
sg14
g6
sS'restricted_stock_deferred_log'
p79
g16
sS'salary_log'
p80
g16
sg18
g6
sS'director_fees_log'
p81
g16
sg20
I58
sg21
g6
sg22
I12
sg23
g6
sS'exercised_stock_options_log'
p82
F13.387571287185015
sg25
g6
sS'total_stock_value_log'
p83
F13.85298551740667
sg27
g6
sg28
I1038185
sg29
I10
sS'deferral_payments_log'
p84
g16
sg31
I0
sS'total_payments_log'
p85
g16
sg33
I386335
sS'long_term_incentive_log'
p86
g16
sg35
g6
sg36
g73
sg37
g6
sg38
F0.08762886597938144
sg39
I651850
sS'loan_advances_log'
p87
g16
sS'deferred_income_log'
p88
g16
ssS'HANNON KEVIN P'
p89
(dp90
S'expenses_log'
p91
F10.435291582687311
sg4
I1045
sg5
g6
sS'bonus_log'
p92
F14.220976332738882
sg8
I34039
sg9
I01
sg10
I-3117011
sS'restricted_stock_log'
p93
F13.656591025211885
sg12
S'kevin.hannon@enron.com'
p94
sg14
I1617011
sS'restricted_stock_deferred_log'
p95
g16
sS'salary_log'
p96
F12.402025867555075
sg18
g6
sS'director_fees_log'
p97
g16
sg20
I1035
sg21
g6
sg22
I32
sg23
I11350
sS'exercised_stock_options_log'
p98
F15.527144343854186
sg25
g6
sS'total_stock_value_log'
p99
F15.670411635601472
sg27
I1500000
sg28
I6391065
sg29
I32
sS'deferral_payments_log'
p100
g16
sg31
I21
sS'total_payments_log'
p101
F12.573084479261906
sg33
I853064
sS'long_term_incentive_log'
p102
F14.296090559681986
sg35
I243293
sg36
g89
sg37
I288682
sg38
F1.0102135561745589
sg39
I5538001
sS'loan_advances_log'
p103
g16
sS'deferred_income_log'
p104
g16
ssS'MORDAUNT KRISTINA M'
p105
(dp106
S'expenses_log'
p107
F10.463646050320772
sg4
g6
sg5
g6
sS'bonus_log'
p108
F12.691583538230217
sg8
I35018
sg9
I00
sg10
g6
sS'restricted_stock_log'
p109
F12.247747076623115
sg12
S'kristina.mordaunt@enron.com'
p110
sg14
g6
sS'restricted_stock_deferred_log'
p111
g16
sS'salary_log'
p112
F12.495355935348927
sg18
g6
sS'director_fees_log'
p113
g16
sg20
g6
sg21
g6
sg22
g6
sg23
I1411
sS'exercised_stock_options_log'
p114
g16
sg25
g6
sS'total_stock_value_log'
p115
F12.247747076623115
sg27
I325000
sg28
I208510
sg29
g6
sS'deferral_payments_log'
p116
g16
sg31
g6
sS'total_payments_log'
p117
F13.351127901410477
sg33
I208510
sS'long_term_incentive_log'
p118
g16
sg35
I267093
sg36
g105
sg37
I628522
sg38
g16
sg39
g6
sS'loan_advances_log'
p119
g16
sS'deferred_income_log'
p120
g16
ssS'MEYER ROCKFORD G'
p121
(dp122
S'expenses_log'
p123
g16
sg4
I232
sg5
I1848227
sS'bonus_log'
p124
g16
sg8
g6
sg9
I00
sg10
g6
sS'restricted_stock_log'
p125
F13.044153156367768
sg12
S'rockford.meyer@enron.com'
p126
sg14
g6
sS'restricted_stock_deferred_log'
p127
g16
sS'salary_log'
p128
g16
sg18
g6
sS'director_fees_log'
p129
g16
sg20
I22
sg21
g6
sg22
I28
sg23
g6
sS'exercised_stock_options_log'
p130
F13.109257874225849
sg25
g6
sS'total_stock_value_log'
p131
F13.770381384184086
sg27
g6
sg28
I955873
sg29
I0
sS'deferral_payments_log'
p132
F14.429737900196873
sg31
I0
sS'total_payments_log'
p133
F14.429737900196873
sg33
I462384
sS'long_term_incentive_log'
p134
g16
sg35
g6
sg36
g121
sg37
I1848227
sg38
F0.08461538461538462
sg39
I493489
sS'loan_advances_log'
p135
g16
sS'deferred_income_log'
p136
g16
ssS'MCMAHON JEFFREY'
p137
(dp138
S'expenses_log'
p139
F11.828531508910057
sg4
I2355
sg5
g6
sS'bonus_log'
p140
F14.77102238760702
sg8
I137108
sg9
I00
sg10
g6
sS'restricted_stock_log'
p141
F13.233550485456606
sg12
S'jeffrey.mcmahon@enron.com'
p142
sg14
I694862
sS'restricted_stock_deferred_log'
p143
g16
sS'salary_log'
p144
F12.822471062421535
sg18
g6
sS'director_fees_log'
p145
g16
sg20
I2228
sg21
g6
sg22
I48
sg23
I297353
sS'exercised_stock_options_log'
p146
F13.91450032341884
sg25
g6
sS'total_stock_value_log'
p147
F14.324047163926792
sg27
I2600000
sg28
I1662855
sg29
I58
sS'deferral_payments_log'
p148
g16
sg31
I26
sS'total_payments_log'
p149
F15.226441920372158
sg33
I558801
sS'long_term_incentive_log'
p150
F13.451469982813617
sg35
I370448
sg36
g137
sg37
I4099771
sg38
F0.9621306699958385
sg39
I1104054
sS'loan_advances_log'
p151
g16
sS'deferred_income_log'
p152
g16
ssS'HORTON STANLEY C'
p153
(dp154
S'expenses_log'
p155
g16
sg4
I2350
sg5
I3131860
sS'bonus_log'
p156
g16
sg8
g6
sg9
I00
sg10
g6
sS'restricted_stock_log'
p157
F14.531436325413559
sg12
S'stanley.horton@enron.com'
p158
sg14
g6
sS'restricted_stock_deferred_log'
p159
g16
sS'salary_log'
p160
g16
sg18
g6
sS'director_fees_log'
p161
g16
sg20
I1074
sg21
g6
sg22
I1073
sg23
g6
sS'exercised_stock_options_log'
p162
F15.466199812735663
sg25
g6
sS'total_stock_value_log'
p163
F15.797428709996709
sg27
g6
sg28
I7256648
sg29
I44
sS'deferral_payments_log'
p164
F14.9571379545205
sg31
I15
sS'total_payments_log'
p165
F14.9571379545205
sg33
I2046079
sS'long_term_incentive_log'
p166
g16
sg35
g6
sg36
g153
sg37
I3131860
sg38
F0.33099620216184633
sg39
I5210569
sS'loan_advances_log'
p167
g16
sS'deferred_income_log'
p168
g16
ssS'PIPER GREGORY F'
p169
(dp170
S'expenses_log'
p171
F10.670303323021274
sg4
I1238
sg5
I1130036
sS'bonus_log'
p172
F12.899222326086994
sg8
I43057
sg9
I00
sg10
I-33333
sS'restricted_stock_log'
p173
F12.922826483390773
sg12
S'greg.piper@enron.com'
p174
sg14
g6
sS'restricted_stock_deferred_log'
p175
g16
sS'salary_log'
p176
F12.191425903783335
sg18
I-409554
sS'director_fees_log'
p177
g16
sg20
I742
sg21
g6
sg22
I222
sg23
I778
sS'exercised_stock_options_log'
p178
F13.688007813609389
sg25
g6
sS'total_stock_value_log'
p179
F13.688007813609389
sg27
I400000
sg28
I880290
sg29
I61
sS'deferral_payments_log'
p180
F13.937760933515303
sg31
I48
sS'total_payments_log'
p181
F14.368032673766082
sg33
I409554
sS'long_term_incentive_log'
p182
g16
sg35
I197091
sg36
g169
sg37
I1737629
sg38
F0.5828767123287671
sg39
I880290
sS'loan_advances_log'
p183
g16
sS'deferred_income_log'
p184
g16
ssS'HUMPHREY GENE E'
p185
(dp186
S'expenses_log'
p187
F8.516192691082654
sg4
I128
sg5
I2964506
sS'bonus_log'
p188
g16
sg8
I4994
sg9
I00
sg10
g6
sS'restricted_stock_log'
p189
g16
sg12
S'gene.humphrey@enron.com'
p190
sg14
g6
sS'restricted_stock_deferred_log'
p191
g16
sS'salary_log'
p192
F11.780851159056331
sg18
g6
sS'director_fees_log'
p193
g16
sg20
I119
sg21
g6
sg22
I17
sg23
g6
sS'exercised_stock_options_log'
p194
F14.64089973773822
sg25
g6
sS'total_stock_value_log'
p195
F14.64089973773822
sg27
g6
sg28
I2282768
sg29
I10
sS'deferral_payments_log'
p196
F14.902221303401861
sg31
I17
sS'total_payments_log'
p197
F14.946985247466689
sg33
g6
sS'long_term_incentive_log'
p198
g16
sg35
I130724
sg36
g185
sg37
I3100224
sg38
F1.006896551724138
sg39
I2282768
sS'loan_advances_log'
p199
g16
sS'deferred_income_log'
p200
g16
ssS'UMANOFF ADAM S'
p201
(dp202
S'expenses_log'
p203
F10.880365258459227
sg4
I111
sg5
g6
sS'bonus_log'
p204
F13.5782059606656
sg8
I53122
sg9
I00
sg10
g6
sS'restricted_stock_log'
p205
g16
sg12
S'adam.umanoff@enron.com'
p206
sg14
g6
sS'restricted_stock_deferred_log'
p207
g16
sS'salary_log'
p208
F12.572762274686932
sg18
g6
sS'director_fees_log'
p209
g16
sg20
I41
sg21
g6
sg22
I18
sg23
g6
sS'exercised_stock_options_log'
p210
g16
sg25
g6
sS'total_stock_value_log'
p211
g16
sg27
I788750
sg28
g6
sg29
I12
sS'deferral_payments_log'
p212
g16
sg31
I0
sS'total_payments_log'
p213
F13.938136956689839
sg33
g6
sS'long_term_incentive_log'
p214
g16
sg35
I288589
sg36
g201
sg37
I1130461
sg38
F0.4108527131782946
sg39
g6
sS'loan_advances_log'
p215
g16
sS'deferred_income_log'
p216
g16
ssS'BLACHMAN JEREMY M'
p217
(dp218
S'expenses_log'
p219
F11.34105708287931
sg4
I2475
sg5
g6
sS'bonus_log'
p220
F13.652992804936396
sg8
I84208
sg9
I00
sg10
g6
sS'restricted_stock_log'
p221
F12.1497244915763
sg12
S'jeremy.blachman@enron.com'
p222
sg14
I831809
sS'restricted_stock_deferred_log'
p223
g16
sS'salary_log'
p224
F12.42338724144394
sg18
g6
sS'director_fees_log'
p225
g16
sg20
I2326
sg21
g6
sg22
I14
sg23
I272
sS'exercised_stock_options_log'
p226
F13.54804148611037
sg25
g6
sS'total_stock_value_log'
p227
F13.768790998612333
sg27
I850000
sg28
I954354
sg29
I25
sS'deferral_payments_log'
p228
g16
sg31
I2
sS'total_payments_log'
p229
F14.516048360472444
sg33
I189041
sS'long_term_incentive_log'
p230
F13.631359328339386
sg35
I248546
sg36
g217
sg37
I2014835
sg38
F0.9453595821615106
sg39
I765313
sS'loan_advances_log'
p231
g16
sS'deferred_income_log'
p232
g16
ssS'SUNDE MARTIN'
p233
(dp234
S'expenses_log'
p235
g16
sg4
I2647
sg5
g6
sS'bonus_log'
p236
F13.45883704259595
sg8
g6
sg9
I00
sg10
g6
sS'restricted_stock_log'
p237
F13.457292996230867
sg12
S'marty.sunde@enron.com'
p238
sg14
I476451
sS'restricted_stock_deferred_log'
p239
g16
sS'salary_log'
p240
F12.458724512374602
sg18
g6
sS'director_fees_log'
p241
g16
sg20
I2565
sg21
g6
sg22
I38
sg23
I111122
sS'exercised_stock_options_log'
p242
g16
sg25
g6
sS'total_stock_value_log'
p243
F13.457292996230867
sg27
I700000
sg28
I698920
sg29
I37
sS'deferral_payments_log'
p244
g16
sg31
I13
sS'total_payments_log'
p245
F14.250573302511382
sg33
I698920
sS'long_term_incentive_log'
p246
F13.07412226247977
sg35
I257486
sg36
g233
sg37
I1545059
sg38
F0.9739292364990689
sg39
g6
sS'loan_advances_log'
p247
g16
sS'deferred_income_log'
p248
g16
ssS'GIBBS DANA R'
p249
(dp250
S'expenses_log'
p251
g16
sg4
I169
sg5
I504610
sS'bonus_log'
p252
g16
sg8
g6
sg9
I00
sg10
g6
sS'restricted_stock_log'
p253
g16
sg12
S'dana.gibbs@enron.com'
p254
sg14
I461912
sS'restricted_stock_deferred_log'
p255
g16
sS'salary_log'
p256
g16
sg18
g6
sS'director_fees_log'
p257
g16
sg20
I23
sg21
g6
sg22
I12
sg23
g6
sS'exercised_stock_options_log'
p258
F14.612240875580095
sg25
g6
sS'total_stock_value_log'
p259
F14.612240875580095
sg27
g6
sg28
I2218275
sg29
I0
sS'deferral_payments_log'
p260
F13.131543114396594
sg31
I0
sS'total_payments_log'
p261
F13.781460374553788
sg33
g6
sS'long_term_incentive_log'
p262
F13.043131840642692
sg35
g6
sg36
g249
sg37
I966522
sg38
F0.1270718232044199
sg39
I2218275
sS'loan_advances_log'
p263
g16
sS'deferred_income_log'
p264
g16
ssS'LOWRY CHARLES P'
p265
(dp266
S'expenses_log'
p267
g16
sg4
g6
sg5
g6
sS'bonus_log'
p268
g16
sg8
g6
sg9
I00
sg10
g6
sS'restricted_stock_log'
p269
F11.942673345598234
sg12
g6
sg14
g6
sS'restricted_stock_deferred_log'
p270
g16
sS'salary_log'
p271
g16
sg18
I-153686
sS'director_fees_log'
p272
g16
sg20
g6
sg21
g6
sg22
g6
sg23
g6
sS'exercised_stock_options_log'
p273
F12.827202743425751
sg25
g6
sS'total_stock_value_log'
p274
F12.827202743425751
sg27
g6
sg28
I372205
sg29
g6
sS'deferral_payments_log'
p275
g16
sg31
g6
sS'total_payments_log'
p276
g16
sg33
I153686
sS'long_term_incentive_log'
p277
g16
sg35
g6
sg36
g265
sg37
g6
sg38
g16
sg39
I372205
sS'loan_advances_log'
p278
g16
sS'deferred_income_log'
p279
g16
ssS'COLWELL WESLEY'
p280
(dp281
S'expenses_log'
p282
F9.71202433782489
sg4
I1758
sg5
I27610
sS'bonus_log'
p283
F13.997832948091215
sg8
I16514
sg9
I01
sg10
I-144062
sS'restricted_stock_log'
p284
F13.456322458694515
sg12
S'wes.colwell@enron.com'
p285
sg14
g6
sS'restricted_stock_deferred_log'
p286
g16
sS'salary_log'
p287
F12.572599400617682
sg18
g6
sS'director_fees_log'
p288
g16
sg20
I1132
sg21
g6
sg22
I40
sg23
I101740
sS'exercised_stock_options_log'
p289
g16
sg25
g6
sS'total_stock_value_log'
p290
F13.456322458694515
sg27
I1200000
sg28
I698242
sg29
I240
sS'deferral_payments_log'
p291
F10.225969523029635
sg31
I11
sS'total_payments_log'
p292
F14.214518194743714
sg33
I698242
sS'long_term_incentive_log'
p293
g16
sg35
I288542
sg36
g280
sg37
I1490344
sg38
F0.7691879866518354
sg39
g6
sS'loan_advances_log'
p294
g16
sS'deferred_income_log'
p295
g16
ssS'MULLER MARK S'
p296
(dp297
S'expenses_log'
p298
g16
sg4
I136
sg5
I842924
sS'bonus_log'
p299
F13.910821646859095
sg8
g6
sg9
I00
sg10
I-719000
sS'restricted_stock_log'
p300
F12.795327676299726
sg12
S's..muller@enron.com'
p301
sg14
I1725545
sS'restricted_stock_deferred_log'
p302
g16
sS'salary_log'
p303
F12.43581438087261
sg18
g6
sS'director_fees_log'
p304
g16
sg20
I114
sg21
g6
sg22
I16
sg23
I947
sS'exercised_stock_options_log'
p305
F13.870302674329341
sg25
g6
sS'total_stock_value_log'
p306
F14.163945949832952
sg27
I1100000
sg28
I1416848
sg29
I12
sS'deferral_payments_log'
p307
F13.644633265054578
sg31
I0
sS'total_payments_log'
p308
F14.97930834593444
sg33
I360528
sS'long_term_incentive_log'
p309
F14.36105408010429
sg35
I251654
sg36
g296
sg37
I3202070
sg38
F0.8289473684210527
sg39
I1056320
sS'loan_advances_log'
p310
g16
sS'deferred_income_log'
p311
g16
ssS'JACKSON CHARLENE R'
p312
(dp313
S'expenses_log'
p314
F9.228376734462282
sg4
I258
sg5
g6
sS'bonus_log'
p315
F12.429220196836383
sg8
I10181
sg9
I00
sg10
g6
sS'restricted_stock_log'
p316
F13.200569938854194
sg12
S'charlene.jackson@enron.com'
p317
sg14
g6
sS'restricted_stock_deferred_log'
p318
g16
sS'salary_log'
p319
F12.572654850087634
sg18
g6
sS'director_fees_log'
p320
g16
sg20
I117
sg21
g6
sg22
I56
sg23
I2435
sS'exercised_stock_options_log'
p321
F12.128456990180906
sg25
g6
sS'total_stock_value_log'
p322
F13.494941591311562
sg27
I250000
sg28
I725735
sg29
I25
sS'deferral_payments_log'
p323
g16
sg31
I19
sS'total_payments_log'
p324
F13.21980764206518
sg33
I540672
sS'long_term_incentive_log'
p325
g16
sg35
I288558
sg36
g312
sg37
I551174
sg38
F0.5127388535031847
sg39
I185063
sS'loan_advances_log'
p326
g16
sS'deferred_income_log'
p327
g16
ssS'WESTFAHL RICHARD K'
p328
(dp329
S'expenses_log'
p330
F10.856515146126256
sg4
g6
sg5
g6
sS'bonus_log'
p331
g16
sg8
I51870
sg9
I00
sg10
I-10800
sS'restricted_stock_log'
p332
F12.860819376428738
sg12
S'dick.westfahl@enron.com'
p333
sg14
I256191
sS'restricted_stock_deferred_log'
p334
g16
sS'salary_log'
p335
F11.062646028572223
sg18
g6
sS'director_fees_log'
p336
g16
sg20
g6
sg21
g6
sg22
g6
sg23
I401130
sS'exercised_stock_options_log'
p337
g16
sg25
g6
sS'total_stock_value_log'
p338
F12.860819376428738
sg27
g6
sg28
I384930
sg29
g6
sS'deferral_payments_log'
p339
g16
sg31
g6
sS'total_payments_log'
p340
F13.543880296433825
sg33
I384930
sS'long_term_incentive_log'
p341
F12.453682442352246
sg35
I63744
sg36
g328
sg37
I762135
sg38
g16
sg39
g6
sS'loan_advances_log'
p342
g16
sS'deferred_income_log'
p343
g16
ssS'WALTERS GARETH W'
p344
(dp345
S'expenses_log'
p346
F10.427801794482674
sg4
g6
sg5
I53625
sS'bonus_log'
p347
g16
sg8
I33785
sg9
I00
sg10
g6
sS'restricted_stock_log'
p348
g16
sg12
g6
sg14
g6
sS'restricted_stock_deferred_log'
p349
g16
sS'salary_log'
p350
g16
sg18
g6
sS'director_fees_log'
p351
g16
sg20
g6
sg21
g6
sg22
g6
sg23
g6
sS'exercised_stock_options_log'
p352
F13.845389697241945
sg25
g6
sS'total_stock_value_log'
p353
F13.845389697241945
sg27
g6
sg28
I1030329
sg29
g6
sS'deferral_payments_log'
p354
F10.889789304075094
sg31
g6
sS'total_payments_log'
p355
F11.378376411847727
sg33
g6
sS'long_term_incentive_log'
p356
g16
sg35
g6
sg36
g344
sg37
I87410
sg38
g16
sg39
I1030329
sS'loan_advances_log'
p357
g16
sS'deferred_income_log'
p358
g16
ssS'WALLS JR ROBERT H'
p359
(dp360
S'expenses_log'
p361
F10.838344853984122
sg4
I671
sg5
g6
sS'bonus_log'
p362
F13.652992804936396
sg8
I50936
sg9
I00
sg10
g6
sS'restricted_stock_log'
p363
F14.255347462721176
sg12
S'rob.walls@enron.com'
p364
sg14
I540751
sS'restricted_stock_deferred_log'
p365
g16
sS'salary_log'
p366
F12.785748730643274
sg18
g6
sS'director_fees_log'
p367
g16
sg20
I215
sg21
g6
sg22
I146
sg23
I2
sS'exercised_stock_options_log'
p368
F15.284891834605375
sg25
g6
sS'total_stock_value_log'
p369
F15.590293063944639
sg27
I850000
sg28
I5898997
sg29
I17
sS'deferral_payments_log'
p370
g16
sg31
I0
sS'total_payments_log'
p371
F14.402619771225618
sg33
I1552453
sS'long_term_incentive_log'
p372
F13.200716042375271
sg35
I357091
sg36
g359
sg37
I1798780
sg38
F0.2839657282741738
sg39
I4346544
sS'loan_advances_log'
p373
g16
sS'deferred_income_log'
p374
g16
ssS'KITCHEN LOUISE'
p375
(dp376
S'expenses_log'
p377
F8.661293535389994
sg4
I8305
sg5
g6
sS'bonus_log'
p378
F14.946912992035967
sg8
I5774
sg9
I00
sg10
g6
sS'restricted_stock_log'
p379
F13.05215977327632
sg12
S'louise.kitchen@enron.com'
p380
sg14
g6
sS'restricted_stock_deferred_log'
p381
g16
sS'salary_log'
p382
F12.511507451563261
sg18
g6
sS'director_fees_log'
p383
g16
sg20
I3669
sg21
g6
sg22
I1728
sg23
I93925
sS'exercised_stock_options_log'
p384
F11.302735156993558
sg25
g6
sS'total_stock_value_log'
p385
F13.21246730087218
sg27
I3100000
sg28
I547143
sg29
I251
sS'deferral_payments_log'
p386
g16
sg31
I194
sS'total_payments_log'
p387
F15.059994204407577
sg33
I466101
sS'long_term_incentive_log'
p388
g16
sg35
I271442
sg36
g375
sg37
I3471141
sg38
F0.4100468454101465
sg39
I81042
sS'loan_advances_log'
p389
g16
sS'deferred_income_log'
p390
g16
ssS'CHAN RONNIE'
p391
(dp392
S'expenses_log'
p393
g16
sg4
g6
sg5
g6
sS'bonus_log'
p394
g16
sg8
g6
sg9
I00
sg10
I-98784
sS'restricted_stock_log'
p395
F10.38779464774131
sg12
g6
sg14
g6
sS'restricted_stock_deferred_log'
p396
g16
sS'salary_log'
p397
g16
sg18
I-32460
sS'director_fees_log'
p398
F11.500701050347505
sg20
g6
sg21
g6
sg22
g6
sg23
g6
sS'exercised_stock_options_log'
p399
g16
sg25
I98784
sS'total_stock_value_log'
p400
g16
sg27
g6
sg28
g6
sg29
g6
sS'deferral_payments_log'
p401
g16
sg31
g6
sS'total_payments_log'
p402
g16
sg33
I32460
sS'long_term_incentive_log'
p403
g16
sg35
g6
sg36
g391
sg37
g6
sg38
g16
sg39
g6
sS'loan_advances_log'
p404
g16
sS'deferred_income_log'
p405
g16
ssS'BELFER ROBERT'
p406
(dp407
S'expenses_log'
p408
g16
sg4
g6
sg5
I-102500
sS'bonus_log'
p409
g16
sg8
g6
sg9
I00
sg10
g6
sS'restricted_stock_log'
p410
g16
sg12
g6
sg14
g6
sS'restricted_stock_deferred_log'
p411
F10.694078997756927
sS'salary_log'
p412
g16
sg18
I44093
sS'director_fees_log'
p413
F8.097426298597213
sg20
g6
sg21
g6
sg22
g6
sg23
g6
sS'exercised_stock_options_log'
p414
F8.097426298597213
sg25
I3285
sS'total_stock_value_log'
p415
g16
sg27
g6
sg28
I-44093
sg29
g6
sS'deferral_payments_log'
p416
g16
sg31
g6
sS'total_payments_log'
p417
F11.537627833610571
sg33
g6
sS'long_term_incentive_log'
p418
g16
sg35
g6
sg36
g406
sg37
I102500
sg38
g16
sg39
I3285
sS'loan_advances_log'
p419
g16
sS'deferred_income_log'
p420
g16
ssS'SHANKMAN JEFFREY A'
p421
(dp422
S'expenses_log'
p423
F12.09502934673685
sg4
I3221
sg5
g6
sS'bonus_log'
p424
F14.508658238524095
sg8
I178979
sg9
I00
sg10
g6
sS'restricted_stock_log'
p425
F13.353694121999336
sg12
S'jeffrey.shankman@enron.com'
p426
sg14
I554422
sS'restricted_stock_deferred_log'
p427
g16
sS'salary_log'
p428
F12.625148045322993
sg18
g6
sS'director_fees_log'
p429
g16
sg20
I1730
sg21
g6
sg22
I2681
sg23
I1191
sS'exercised_stock_options_log'
p430
F14.181471552765126
sg25
g6
sS'total_stock_value_log'
p431
F14.54404225672795
sg27
I2000000
sg28
I2072035
sg29
I94
sS'deferral_payments_log'
p432
g16
sg31
I83
sS'total_payments_log'
p433
F14.926941337606802
sg33
I630137
sS'long_term_incentive_log'
p434
F13.225683212288784
sg35
I304110
sg36
g421
sg37
I3038702
sg38
F0.3231108098949509
sg39
I1441898
sS'loan_advances_log'
p435
g16
sS'deferred_income_log'
p436
g16
ssS'WODRASKA JOHN'
p437
(dp438
S'expenses_log'
p439
g16
sg4
g6
sg5
g6
sS'bonus_log'
p440
g16
sg8
g6
sg9
I00
sg10
g6
sS'restricted_stock_log'
p441
g16
sg12
S'john.wodraska@enron.com'
p442
sg14
g6
sS'restricted_stock_deferred_log'
p443
g16
sS'salary_log'
p444
g16
sg18
g6
sS'director_fees_log'
p445
g16
sg20
g6
sg21
g6
sg22
g6
sg23
I189583
sS'exercised_stock_options_log'
p446
g16
sg25
g6
sS'total_stock_value_log'
p447
g16
sg27
g6
sg28
g6
sg29
g6
sS'deferral_payments_log'
p448
g16
sg31
g6
sS'total_payments_log'
p449
F12.152587477056521
sg33
g6
sS'long_term_incentive_log'
p450
g16
sg35
g6
sg36
g437
sg37
I189583
sg38
g16
sg39
g6
sS'loan_advances_log'
p451
g16
sS'deferred_income_log'
p452
g16
ssS'BERGSIEKER RICHARD P'
p453
(dp454
S'expenses_log'
p455
F10.988271333267704
sg4
I383
sg5
g6
sS'bonus_log'
p456
F12.429220196836383
sg8
I59175
sg9
I00
sg10
I-485813
sS'restricted_stock_log'
p457
F13.398858104215533
sg12
S'rick.bergsieker@enron.com'
p458
sg14
I180250
sS'restricted_stock_deferred_log'
p459
g16
sS'salary_log'
p460
F12.14378758344547
sg18
g6
sS'director_fees_log'
p461
g16
sg20
I233
sg21
g6
sg22
I59
sg23
I427316
sS'exercised_stock_options_log'
p462
g16
sg25
g6
sS'total_stock_value_log'
p463
F13.398858104215533
sg27
I250000
sg28
I659249
sg29
I4
sS'deferral_payments_log'
p464
g16
sg31
I0
sS'total_payments_log'
p465
F13.335619811867323
sg33
I659249
sS'long_term_incentive_log'
p466
F12.102105602982014
sg35
I187922
sg36
g453
sg37
I618850
sg38
F0.5361990950226244
sg39
g6
sS'loan_advances_log'
p467
g16
sS'deferred_income_log'
p468
g16
ssS'URQUHART JOHN A'
p469
(dp470
S'expenses_log'
p471
F12.339978343093861
sg4
g6
sg5
g6
sS'bonus_log'
p472
g16
sg8
I228656
sg9
I00
sg10
I-36666
sS'restricted_stock_log'
p473
g16
sg12
g6
sg14
g6
sS'restricted_stock_deferred_log'
p474
g16
sS'salary_log'
p475
g16
sg18
g6
sS'director_fees_log'
p476
F10.509632446974212
sg20
g6
sg21
g6
sg22
g6
sg23
g6
sS'exercised_stock_options_log'
p477
g16
sg25
I36666
sS'total_stock_value_log'
p478
g16
sg27
g6
sg28
g6
sg29
g6
sS'deferral_payments_log'
p479
g16
sg31
g6
sS'total_payments_log'
p480
F12.339978343093861
sg33
g6
sS'long_term_incentive_log'
p481
g16
sg35
g6
sg36
g469
sg37
I228656
sg38
g16
sg39
g6
sS'loan_advances_log'
p482
g16
sS'deferred_income_log'
p483
g16
ssS'BIBI PHILIPPE A'
p484
(dp485
S'expenses_log'
p486
F10.559970748724481
sg4
I1607
sg5
g6
sS'bonus_log'
p487
F13.815511557963774
sg8
I38559
sg9
I00
sg10
g6
sS'restricted_stock_log'
p488
F12.842869027217862
sg12
S'philippe.bibi@enron.com'
p489
sg14
I369721
sS'restricted_stock_deferred_log'
p490
g16
sS'salary_log'
p491
F12.271982101506994
sg18
g6
sS'director_fees_log'
p492
g16
sg20
I1336
sg21
g6
sg22
I40
sg23
I425688
sS'exercised_stock_options_log'
p493
F14.197867381105327
sg25
g6
sS'total_stock_value_log'
p494
F14.427348437393073
sg27
I1000000
sg28
I1843816
sg29
I23
sS'deferral_payments_log'
p495
g16
sg31
I8
sS'total_payments_log'
p496
F14.532176003301455
sg33
I378082
sS'long_term_incentive_log'
p497
F12.820506650863162
sg35
I213625
sg36
g484
sg37
I2047593
sg38
F0.8299939283545841
sg39
I1465734
sS'loan_advances_log'
p498
g16
sS'deferred_income_log'
p499
g16
ssS'RIEKER PAULA H'
p500
(dp501
S'expenses_log'
p502
F10.412471481422747
sg4
I1328
sg5
I214678
sS'bonus_log'
p503
F13.45883704259595
sg8
I33271
sg9
I01
sg10
I-100000
sS'restricted_stock_log'
p504
F12.555496362754713
sg12
S'paula.rieker@enron.com'
p505
sg14
g6
sS'restricted_stock_deferred_log'
p506
g16
sS'salary_log'
p507
F12.426019091545413
sg18
g6
sS'director_fees_log'
p508
g16
sg20
I1258
sg21
g6
sg22
I82
sg23
I1950
sS'exercised_stock_options_log'
p509
F14.30729952900065
sg25
g6
sS'total_stock_value_log'
p510
F14.467256409555498
sg27
I700000
sg28
I1918887
sg29
I35
sS'deferral_payments_log'
p511
F12.276899168184146
sg31
I48
sS'total_payments_log'
p512
F13.910003130891898
sg33
I283649
sS'long_term_incentive_log'
p513
g16
sg35
I249201
sg36
g500
sg37
I1099100
sg38
F0.951063829787234
sg39
I1635238
sS'loan_advances_log'
p514
g16
sS'deferred_income_log'
p515
g16
ssS'WHALEY DAVID A'
p516
(dp517
S'expenses_log'
p518
g16
sg4
g6
sg5
g6
sS'bonus_log'
p519
g16
sg8
g6
sg9
I00
sg10
g6
sS'restricted_stock_log'
p520
g16
sg12
g6
sg14
g6
sS'restricted_stock_deferred_log'
p521
g16
sS'salary_log'
p522
g16
sg18
g6
sS'director_fees_log'
p523
g16
sg20
g6
sg21
g6
sg22
g6
sg23
g6
sS'exercised_stock_options_log'
p524
F11.500032709428266
sg25
g6
sS'total_stock_value_log'
p525
F11.500032709428266
sg27
g6
sg28
I98718
sg29
g6
sS'deferral_payments_log'
p526
g16
sg31
g6
sS'total_payments_log'
p527
g16
sg33
g6
sS'long_term_incentive_log'
p528
g16
sg35
g6
sg36
g516
sg37
g6
sg38
g16
sg39
I98718
sS'loan_advances_log'
p529
g16
sS'deferred_income_log'
p530
g16
ssS'BECK SALLY W'
p531
(dp532
S'expenses_log'
p533
F10.523337970284603
sg4
I7315
sg5
g6
sS'bonus_log'
p534
F13.45883704259595
sg8
I37172
sg9
I00
sg10
g6
sS'restricted_stock_log'
p535
F11.744259383468137
sg12
S'sally.beck@enron.com'
p536
sg14
g6
sS'restricted_stock_deferred_log'
p537
g16
sS'salary_log'
p538
F12.351604864314632
sg18
g6
sS'director_fees_log'
p539
g16
sg20
I2639
sg21
g6
sg22
I4343
sg23
I566
sS'exercised_stock_options_log'
p540
g16
sg25
g6
sS'total_stock_value_log'
p541
F11.744259383468137
sg27
I700000
sg28
I126027
sg29
I144
sS'deferral_payments_log'
p542
g16
sg31
I386
sS'total_payments_log'
p543
F13.784091095768115
sg33
I126027
sS'long_term_incentive_log'
p544
g16
sg35
I231330
sg36
g531
sg37
I969068
sg38
F0.2718305026591182
sg39
g6
sS'loan_advances_log'
p545
g16
sS'deferred_income_log'
p546
g16
ssS'HAUG DAVID L'
p547
(dp548
S'expenses_log'
p549
F6.16541785423142
sg4
I573
sg5
g6
sS'bonus_log'
p550
g16
sg8
I475
sg9
I00
sg10
g6
sS'restricted_stock_log'
p551
F14.611800797441088
sg12
S'david.haug@enron.com'
p552
sg14
g6
sS'restricted_stock_deferred_log'
p553
g16
sS'salary_log'
p554
g16
sg18
g6
sS'director_fees_log'
p555
g16
sg20
I471
sg21
g6
sg22
I19
sg23
g6
sS'exercised_stock_options_log'
p556
g16
sg25
g6
sS'total_stock_value_log'
p557
F14.611800797441088
sg27
g6
sg28
I2217299
sg29
I4
sS'deferral_payments_log'
p558
g16
sg31
I7
sS'total_payments_log'
p559
F6.16541785423142
sg33
I2217299
sS'long_term_incentive_log'
p560
g16
sg35
g6
sg36
g547
sg37
I475
sg38
F0.8141891891891891
sg39
g6
sS'loan_advances_log'
p561
g16
sS'deferred_income_log'
p562
g16
ssS'ECHOLS JOHN B'
p563
(dp564
S'expenses_log'
p565
F9.977249036098181
sg4
g6
sg5
g6
sS'bonus_log'
p566
F12.206077645517674
sg8
I21530
sg9
I00
sg10
g6
sS'restricted_stock_log'
p567
F12.917806027565799
sg12
S'john.echols@enron.com'
p568
sg14
I2234774
sS'restricted_stock_deferred_log'
p569
g16
sS'salary_log'
p570
F12.113112701756247
sg18
g6
sS'director_fees_log'
p571
g16
sg20
g6
sg21
g6
sg22
g6
sg23
I53775
sS'exercised_stock_options_log'
p572
F13.307080396120378
sg25
g6
sS'total_stock_value_log'
p573
F13.82441281502746
sg27
I200000
sg28
I1008941
sg29
g6
sS'deferral_payments_log'
p574
g16
sg31
g6
sS'total_payments_log'
p575
F14.805915690542916
sg33
I407503
sS'long_term_incentive_log'
p576
F14.619651109821188
sg35
I182245
sg36
g563
sg37
I2692324
sg38
g16
sg39
I601438
sS'loan_advances_log'
p577
g16
sS'deferred_income_log'
p578
g16
ssS'MENDELSOHN JOHN'
p579
(dp580
S'expenses_log'
p581
F5.003946305945459
sg4
g6
sg5
g6
sS'bonus_log'
p582
g16
sg8
I148
sg9
I00
sg10
I-103750
sS'restricted_stock_log'
p583
g16
sg12
g6
sg14
g6
sS'restricted_stock_deferred_log'
p584
g16
sS'salary_log'
p585
g16
sg18
g6
sS'director_fees_log'
p586
F11.549749076600712
sg20
g6
sg21
g6
sg22
g6
sg23
g6
sS'exercised_stock_options_log'
p587
g16
sg25
I103750
sS'total_stock_value_log'
p588
g16
sg27
g6
sg28
g6
sg29
g6
sS'deferral_payments_log'
p589
g16
sg31
g6
sS'total_payments_log'
p590
F5.003946305945459
sg33
g6
sS'long_term_incentive_log'
p591
g16
sg35
g6
sg36
g579
sg37
I148
sg38
g16
sg39
g6
sS'loan_advances_log'
p592
g16
sS'deferred_income_log'
p593
g16
ssS'HICKERSON GARY J'
p594
(dp595
S'expenses_log'
p596
F11.501358828598763
sg4
I1320
sg5
g6
sS'bonus_log'
p597
F14.346139397261565
sg8
I98849
sg9
I00
sg10
g6
sS'restricted_stock_log'
p598
F12.997020084891032
sg12
S'gary.hickerson@enron.com'
p599
sg14
I69223
sS'restricted_stock_deferred_log'
p600
g16
sS'salary_log'
p601
F12.263345775012255
sg18
g6
sS'director_fees_log'
p602
g16
sg20
I900
sg21
g6
sg22
I27
sg23
I1936
sS'exercised_stock_options_log'
p603
g16
sg25
g6
sS'total_stock_value_log'
p604
F12.997020084891032
sg27
I1700000
sg28
I441096
sg29
I40
sS'deferral_payments_log'
p605
g16
sg31
I1
sS'total_payments_log'
p606
F14.548742021001846
sg33
I441096
sS'long_term_incentive_log'
p607
F11.145102902286574
sg35
I211788
sg36
g594
sg37
I2081796
sg38
F0.6985894580549369
sg39
g6
sS'loan_advances_log'
p608
g16
sS'deferred_income_log'
p609
g16
ssS'CLINE KENNETH W'
p610
(dp611
S'expenses_log'
p612
g16
sg4
g6
sg5
g6
sS'bonus_log'
p613
g16
sg8
g6
sg9
I00
sg10
g6
sS'restricted_stock_log'
p614
F13.403152246223879
sg12
g6
sg14
g6
sS'restricted_stock_deferred_log'
p615
g16
sS'salary_log'
p616
g16
sg18
I-472568
sS'director_fees_log'
p617
g16
sg20
g6
sg21
g6
sg22
g6
sg23
g6
sS'exercised_stock_options_log'
p618
g16
sg25
g6
sS'total_stock_value_log'
p619
F12.152244562330777
sg27
g6
sg28
I189518
sg29
g6
sS'deferral_payments_log'
p620
g16
sg31
g6
sS'total_payments_log'
p621
g16
sg33
I662086
sS'long_term_incentive_log'
p622
g16
sg35
g6
sg36
g610
sg37
g6
sg38
g16
sg39
g6
sS'loan_advances_log'
p623
g16
sS'deferred_income_log'
p624
g16
ssS'LEWIS RICHARD'
p625
(dp626
S'expenses_log'
p627
g16
sg4
I952
sg5
g6
sS'bonus_log'
p628
g16
sg8
g6
sg9
I00
sg10
g6
sS'restricted_stock_log'
p629
g16
sg12
S'richard.lewis@enron.com'
p630
sg14
g6
sS'restricted_stock_deferred_log'
p631
g16
sS'salary_log'
p632
g16
sg18
g6
sS'director_fees_log'
p633
g16
sg20
I739
sg21
g6
sg22
I26
sg23
g6
sS'exercised_stock_options_log'
p634
F13.653553823346515
sg25
g6
sS'total_stock_value_log'
p635
F13.653553823346515
sg27
g6
sg28
I850477
sg29
I10
sS'deferral_payments_log'
p636
g16
sg31
I0
sS'total_payments_log'
p637
g16
sg33
g6
sS'long_term_incentive_log'
p638
g16
sg35
g6
sg36
g625
sg37
g6
sg38
F0.7658486707566462
sg39
I850477
sS'loan_advances_log'
p639
g16
sS'deferred_income_log'
p640
g16
ssS'HAYES ROBERT E'
p641
(dp642
S'expenses_log'
p643
g16
sg4
I504
sg5
I7961
sS'bonus_log'
p644
g16
sg8
g6
sg9
I00
sg10
g6
sS'restricted_stock_log'
p645
F11.927806107488086
sg12
S'robert.hayes@enron.com'
p646
sg14
g6
sS'restricted_stock_deferred_log'
p647
g16
sS'salary_log'
p648
g16
sg18
g6
sS'director_fees_log'
p649
g16
sg20
I50
sg21
g6
sg22
I12
sg23
g6
sS'exercised_stock_options_log'
p650
g16
sg25
g6
sS'total_stock_value_log'
p651
F11.927806107488086
sg27
g6
sg28
I151418
sg29
I16
sS'deferral_payments_log'
p652
F8.982435503560263
sg31
I0
sS'total_payments_log'
p653
F8.982435503560263
sg33
I151418
sS'long_term_incentive_log'
p654
g16
sg35
g6
sg36
g641
sg37
I7961
sg38
F0.12790697674418605
sg39
g6
sS'loan_advances_log'
p655
g16
sS'deferred_income_log'
p656
g16
ssS'MCCARTY DANNY J'
p657
(dp658
S'expenses_log'
p659
g16
sg4
I1433
sg5
g6
sS'bonus_log'
p660
g16
sg8
g6
sg9
I00
sg10
g6
sS'restricted_stock_log'
p661
F11.456958106248324
sg12
S'danny.mccarty@enron.com'
p662
sg14
g6
sS'restricted_stock_deferred_log'
p663
g16
sS'salary_log'
p664
g16
sg18
g6
sS'director_fees_log'
p665
g16
sg20
I508
sg21
g6
sg22
I215
sg23
g6
sS'exercised_stock_options_log'
p666
F13.406603533251252
sg25
g6
sS'total_stock_value_log'
p667
F13.53966746079635
sg27
g6
sg28
I758931
sg29
I25
sS'deferral_payments_log'
p668
g16
sg31
I2
sS'total_payments_log'
p669
g16
sg33
I94556
sS'long_term_incentive_log'
p670
g16
sg35
g6
sg36
g657
sg37
g6
sg38
F0.3246359223300971
sg39
I664375
sS'loan_advances_log'
p671
g16
sS'deferred_income_log'
p672
g16
ssS'KOPPER MICHAEL J'
p673
(dp674
S'expenses_log'
p675
F11.679583317297576
sg4
g6
sg5
g6
sS'bonus_log'
p676
F13.592368256649284
sg8
I118134
sg9
I01
sg10
g6
sS'restricted_stock_log'
p677
F13.8004304221311
sg12
S'michael.kopper@enron.com'
p678
sg14
I602671
sS'restricted_stock_deferred_log'
p679
g16
sS'salary_log'
p680
F12.32076647003907
sg18
g6
sS'director_fees_log'
p681
g16
sg20
g6
sg21
g6
sg22
g6
sg23
I907502
sS'exercised_stock_options_log'
p682
g16
sg25
g6
sS'total_stock_value_log'
p683
F13.8004304221311
sg27
I800000
sg28
I985032
sg29
g6
sS'deferral_payments_log'
p684
g16
sg31
g6
sS'total_payments_log'
p685
F14.791055749882375
sg33
I985032
sS'long_term_incentive_log'
p686
F13.309128380784514
sg35
I224305
sg36
g673
sg37
I2652612
sg38
g16
sg39
g6
sS'loan_advances_log'
p687
g16
sS'deferred_income_log'
p688
g16
ssS'LEFF DANIEL P'
p689
(dp690
S'expenses_log'
p691
g16
sg4
I2822
sg5
g6
sS'bonus_log'
p692
F13.815511557963774
sg8
g6
sg9
I00
sg10
g6
sS'restricted_stock_log'
p693
F12.795327676299726
sg12
S'dan.leff@enron.com'
p694
sg14
I1387399
sS'restricted_stock_deferred_log'
p695
g16
sS'salary_log'
p696
F12.519959601148688
sg18
g6
sS'director_fees_log'
p697
g16
sg20
I2672
sg21
g6
sg22
I63
sg23
I3083
sS'exercised_stock_options_log'
p698
g16
sg25
g6
sS'total_stock_value_log'
p699
F12.795327676299726
sg27
I1000000
sg28
I360528
sg29
I67
sS'deferral_payments_log'
p700
g16
sg31
I14
sS'total_payments_log'
p701
F14.795425267908946
sg33
I360528
sS'long_term_incentive_log'
p702
F14.142942049933337
sg35
I273746
sg36
g689
sg37
I2664228
sg38
F0.9542461005199306
sg39
g6
sS'loan_advances_log'
p703
g16
sS'deferred_income_log'
p704
g16
ssS'LAVORATO JOHN J'
p705
(dp706
S'expenses_log'
p707
F10.810495330811365
sg4
I7259
sg5
g6
sS'bonus_log'
p708
F15.894952224644102
sg8
I49537
sg9
I00
sg10
g6
sS'restricted_stock_log'
p709
F13.823627526066222
sg12
S'john.lavorato@enron.com'
p710
sg14
I2035380
sS'restricted_stock_deferred_log'
p711
g16
sS'salary_log'
p712
F12.7346075305592
sg18
g6
sS'director_fees_log'
p713
g16
sg20
I3962
sg21
g6
sg22
I2585
sg23
I1552
sS'exercised_stock_options_log'
p714
F15.24078425695493
sg25
g6
sS'total_stock_value_log'
p715
F15.457830869581203
sg27
I8000000
sg28
I5167144
sg29
I528
sS'deferral_payments_log'
p716
g16
sg31
I411
sS'total_payments_log'
p717
F16.159790032838043
sg33
I1008149
sS'long_term_incentive_log'
p718
F14.526193582921907
sg35
I339288
sg36
g705
sg37
I10425757
sg38
F0.4978667208451849
sg39
I4158995
sS'loan_advances_log'
p719
g16
sS'deferred_income_log'
p720
g16
ssS'BERBERIAN DAVID'
p721
(dp722
S'expenses_log'
p723
F9.383705270727246
sg4
g6
sg5
g6
sS'bonus_log'
p724
g16
sg8
I11892
sg9
I00
sg10
g6
sS'restricted_stock_log'
p725
F13.675352687219823
sg12
S'david.berberian@enron.com'
p726
sg14
g6
sS'restricted_stock_deferred_log'
p727
g16
sS'salary_log'
p728
F12.28572912478096
sg18
g6
sS'director_fees_log'
p729
g16
sg20
g6
sg21
g6
sg22
g6
sg23
g6
sS'exercised_stock_options_log'
p730
F14.30064722795682
sg25
g6
sS'total_stock_value_log'
p731
F14.729244824864704
sg27
g6
sg28
I2493616
sg29
g6
sS'deferral_payments_log'
p732
g16
sg31
g6
sS'total_payments_log'
p733
F12.339182074140403
sg33
I869220
sS'long_term_incentive_log'
p734
g16
sg35
I216582
sg36
g721
sg37
I228474
sg38
g16
sg39
I1624396
sS'loan_advances_log'
p735
g16
sS'deferred_income_log'
p736
g16
ssS'DETMERING TIMOTHY J'
p737
(dp738
S'expenses_log'
p739
F10.863909995770191
sg4
g6
sg5
I875307
sS'bonus_log'
p740
F12.959846800844963
sg8
I52255
sg9
I00
sg10
I-775241
sS'restricted_stock_log'
p741
F12.66054694143939
sg12
S'timothy.detmering@enron.com'
p742
sg14
I415657
sS'restricted_stock_deferred_log'
p743
g16
sS'salary_log'
p744
F12.257245682687113
sg18
I-315068
sS'director_fees_log'
p745
g16
sg20
g6
sg21
g6
sg22
g6
sg23
I1105
sS'exercised_stock_options_log'
p746
F14.522494566559475
sg25
g6
sS'total_stock_value_log'
p747
F14.522494566559475
sg27
I425000
sg28
I2027865
sg29
g6
sS'deferral_payments_log'
p748
F13.682331103402285
sg31
g6
sS'total_payments_log'
p749
F14.001644837086145
sg33
I315068
sS'long_term_incentive_log'
p750
F12.937618085736602
sg35
I210500
sg36
g737
sg37
I1204583
sg38
g16
sg39
I2027865
sS'loan_advances_log'
p751
g16
sS'deferred_income_log'
p752
g16
ssS'WAKEHAM JOHN'
p753
(dp754
S'expenses_log'
p755
F11.549970736642578
sg4
g6
sg5
g6
sS'bonus_log'
p756
g16
sg8
I103773
sg9
I00
sg10
g6
sS'restricted_stock_log'
p757
g16
sg12
g6
sg14
g6
sS'restricted_stock_deferred_log'
p758
g16
sS'salary_log'
p759
g16
sg18
g6
sS'director_fees_log'
p760
F11.601842524991945
sg20
g6
sg21
g6
sg22
g6
sg23
g6
sS'exercised_stock_options_log'
p761
g16
sg25
I109298
sS'total_stock_value_log'
p762
g16
sg27
g6
sg28
g6
sg29
g6
sS'deferral_payments_log'
p763
g16
sg31
g6
sS'total_payments_log'
p764
F12.269385415741926
sg33
g6
sS'long_term_incentive_log'
p765
g16
sg35
g6
sg36
g753
sg37
I213071
sg38
g16
sg39
g6
sS'loan_advances_log'
p766
g16
sS'deferred_income_log'
p767
g16
ssS'POWERS WILLIAM'
p768
(dp769
S'expenses_log'
p770
g16
sg4
I653
sg5
g6
sS'bonus_log'
p771
g16
sg8
g6
sg9
I00
sg10
I-17500
sS'restricted_stock_log'
p772
g16
sg12
S'ken.powers@enron.com'
p773
sg14
g6
sS'restricted_stock_deferred_log'
p774
g16
sS'salary_log'
p775
g16
sg18
g6
sS'director_fees_log'
p776
F9.770013301136158
sg20
I12
sg21
g6
sg22
I26
sg23
g6
sS'exercised_stock_options_log'
p777
g16
sg25
I17500
sS'total_stock_value_log'
p778
g16
sg27
g6
sg28
g6
sg29
I0
sS'deferral_payments_log'
p779
g16
sg31
I0
sS'total_payments_log'
p780
g16
sg33
g6
sS'long_term_incentive_log'
p781
g16
sg35
g6
sg36
g768
sg37
g6
sg38
F0.017673048600883652
sg39
g6
sS'loan_advances_log'
p782
g16
sS'deferred_income_log'
p783
g16
ssS'GOLD JOSEPH'
p784
(dp785
S'expenses_log'
p786
g16
sg4
g6
sg5
g6
sS'bonus_log'
p787
F13.527829818844937
sg8
g6
sg9
I00
sg10
g6
sS'restricted_stock_log'
p788
F12.997020084891032
sg12
S'joe.gold@enron.com'
p789
sg14
I304805
sS'restricted_stock_deferred_log'
p790
g16
sS'salary_log'
p791
F12.516791081700296
sg18
g6
sS'director_fees_log'
p792
g16
sg20
g6
sg21
g6
sg22
g6
sg23
I819288
sS'exercised_stock_options_log'
p793
F12.986580308801921
sg25
g6
sS'total_stock_value_log'
p794
F13.684959861505098
sg27
I750000
sg28
I877611
sg29
g6
sS'deferral_payments_log'
p795
g16
sg31
g6
sS'total_payments_log'
p796
F14.579569966866773
sg33
I441096
sS'long_term_incentive_log'
p797
F12.62743078764025
sg35
I272880
sg36
g784
sg37
I2146973
sg38
g16
sg39
I436515
sS'loan_advances_log'
p798
g16
sS'deferred_income_log'
p799
g16
ssS'BANNANTINE JAMES M'
p800
(dp801
S'expenses_log'
p802
F10.938485337475505
sg4
I566
sg5
g6
sS'bonus_log'
p803
g16
sg8
I56301
sg9
I00
sg10
I-5104
sS'restricted_stock_log'
p804
F14.379433058684521
sg12
S'james.bannantine@enron.com'
p805
sg14
g6
sS'restricted_stock_deferred_log'
p806
g16
sS'salary_log'
p807
F6.169610732491456
sg18
I-560222
sS'director_fees_log'
p808
g16
sg20
I465
sg21
g6
sg22
I29
sg23
I864523
sS'exercised_stock_options_log'
p809
F15.213278346861845
sg25
g6
sS'total_stock_value_log'
p810
F15.472497483706253
sg27
g6
sg28
I5243487
sg29
I39
sS'deferral_payments_log'
p811
g16
sg31
I0
sS'total_payments_log'
p812
F13.727987777502905
sg33
I1757552
sS'long_term_incentive_log'
p813
g16
sg35
I477
sg36
g800
sg37
I916197
sg38
F0.8470588235294118
sg39
I4046157
sS'loan_advances_log'
p814
g16
sS'deferred_income_log'
p815
g16
ssS'DUNCAN JOHN H'
p816
(dp817
S'expenses_log'
p818
g16
sg4
g6
sg5
g6
sS'bonus_log'
p819
g16
sg8
g6
sg9
I00
sg10
I-25000
sS'restricted_stock_log'
p820
g16
sg12
g6
sg14
g6
sS'restricted_stock_deferred_log'
p821
g16
sS'salary_log'
p822
g16
sg18
g6
sS'director_fees_log'
p823
F11.537549782545621
sg20
g6
sg21
g6
sg22
g6
sg23
g6
sS'exercised_stock_options_log'
p824
F12.825979554298609
sg25
I102492
sS'total_stock_value_log'
p825
F12.825979554298609
sg27
g6
sg28
I371750
sg29
g6
sS'deferral_payments_log'
p826
g16
sg31
g6
sS'total_payments_log'
p827
F11.257942888681463
sg33
g6
sS'long_term_incentive_log'
p828
g16
sg35
g6
sg36
g816
sg37
I77492
sg38
g16
sg39
I371750
sS'loan_advances_log'
p829
g16
sS'deferred_income_log'
p830
g16
ssS'SHAPIRO RICHARD S'
p831
(dp832
S'expenses_log'
p833
F11.833326389984736
sg4
I15149
sg5
g6
sS'bonus_log'
p834
F13.384729180332174
sg8
I137767
sg9
I00
sg10
g6
sS'restricted_stock_log'
p835
F12.845726745525077
sg12
S'richard.shapiro@enron.com'
p836
sg14
g6
sS'restricted_stock_deferred_log'
p837
g16
sS'salary_log'
p838
F12.50275286297675
sg18
g6
sS'director_fees_log'
p839
g16
sg20
I4527
sg21
g6
sg22
I1215
sg23
I705
sS'exercised_stock_options_log'
p840
F13.317663678076476
sg25
g6
sS'total_stock_value_log'
p841
F13.802427344756017
sg27
I650000
sg28
I987001
sg29
I74
sS'deferral_payments_log'
p842
g16
sg31
I65
sS'total_payments_log'
p843
F13.871464524526504
sg33
I379164
sS'long_term_incentive_log'
p844
g16
sg35
I269076
sg36
g831
sg37
I1057548
sg38
F0.28513810804204354
sg39
I607837
sS'loan_advances_log'
p845
g16
sS'deferred_income_log'
p846
g16
ssS'SHERRIFF JOHN R'
p847
(dp848
S'expenses_log'
p849
g16
sg4
I3187
sg5
g6
sS'bonus_log'
p850
F14.220976332738882
sg8
g6
sg9
I00
sg10
g6
sS'restricted_stock_log'
p851
F14.072804296708401
sg12
S'john.sherriff@enron.com'
p852
sg14
I554422
sS'restricted_stock_deferred_log'
p853
g16
sS'salary_log'
p854
F12.968701578055533
sg18
g6
sS'director_fees_log'
p855
g16
sg20
I2103
sg21
g6
sg22
I92
sg23
I1852186
sS'exercised_stock_options_log'
p856
F14.422859625232443
sg25
g6
sS'total_stock_value_log'
p857
F14.95621858959056
sg27
I1500000
sg28
I3128982
sg29
I28
sS'deferral_payments_log'
p858
g16
sg31
I23
sS'total_payments_log'
p859
F15.282321898888277
sg33
I1293424
sS'long_term_incentive_log'
p860
F13.225683212288784
sg35
I428780
sg36
g847
sg37
I4335388
sg38
F0.656907593778591
sg39
I1835558
sS'loan_advances_log'
p861
g16
sS'deferred_income_log'
p862
g16
ssS'SHELBY REX'
p863
(dp864
S'expenses_log'
p865
F10.038236953087743
sg4
I225
sg5
g6
sS'bonus_log'
p866
F12.206077645517674
sg8
I22884
sg9
I01
sg10
I-4167
sS'restricted_stock_log'
p867
F13.675352687219823
sg12
S'rex.shelby@enron.com'
p868
sg14
g6
sS'restricted_stock_deferred_log'
p869
g16
sS'salary_log'
p870
F12.263610154171275
sg18
g6
sS'director_fees_log'
p871
g16
sg20
I91
sg21
g6
sg22
I39
sg23
I1573324
sS'exercised_stock_options_log'
p872
F14.30064722795682
sg25
g6
sS'total_stock_value_log'
p873
F14.729244824864704
sg27
I200000
sg28
I2493616
sg29
I13
sS'deferral_payments_log'
p874
g16
sg31
I14
sS'total_payments_log'
p875
F14.510598853341264
sg33
I869220
sS'long_term_incentive_log'
p876
g16
sg35
I211844
sg36
g863
sg37
I2003885
sg38
F0.44696969696969696
sg39
I1624396
sS'loan_advances_log'
p877
g16
sS'deferred_income_log'
p878
g16
ssS'LEMAISTRE CHARLES'
p879
(dp880
S'expenses_log'
p881
g16
sg4
g6
sg5
g6
sS'bonus_log'
p882
g16
sg8
g6
sg9
I00
sg10
I-25000
sS'restricted_stock_log'
p883
g16
sg12
g6
sg14
g6
sS'restricted_stock_deferred_log'
p884
g16
sS'salary_log'
p885
g16
sg18
g6
sS'director_fees_log'
p886
F11.630646276468507
sg20
g6
sg21
g6
sg22
g6
sg23
g6
sS'exercised_stock_options_log'
p887
F12.930909850808437
sg25
I112492
sS'total_stock_value_log'
p888
F12.930909850808437
sg27
g6
sg28
I412878
sg29
g6
sS'deferral_payments_log'
p889
g16
sg31
g6
sS'total_payments_log'
p890
F11.379314069145535
sg33
g6
sS'long_term_incentive_log'
p891
g16
sg35
g6
sg36
g879
sg37
I87492
sg38
g16
sg39
I412878
sS'loan_advances_log'
p892
g16
sS'deferred_income_log'
p893
g16
ssS'DEFFNER JOSEPH M'
p894
(dp895
S'expenses_log'
p896
F10.636504274176522
sg4
I714
sg5
g6
sS'bonus_log'
p897
F13.304686600863562
sg8
I41626
sg9
I00
sg10
g6
sS'restricted_stock_log'
p898
F11.862412638668935
sg12
S'joseph.deffner@enron.com'
p899
sg14
I335349
sS'restricted_stock_deferred_log'
p900
g16
sS'salary_log'
p901
F12.236223505480668
sg18
g6
sS'director_fees_log'
p902
g16
sg20
I552
sg21
g6
sg22
I74
sg23
I25553
sS'exercised_stock_options_log'
p903
F9.763017859764734
sg25
g6
sS'total_stock_value_log'
p904
F11.977991926436147
sg27
I600000
sg28
I159211
sg29
I115
sS'deferral_payments_log'
p905
g16
sg31
I4
sS'total_payments_log'
p906
F14.005014592234247
sg33
I141833
sS'long_term_incentive_log'
p907
F12.722930041527883
sg35
I206121
sg36
g894
sg37
I1208649
sg38
F0.8515228426395939
sg39
I17378
sS'loan_advances_log'
p908
g16
sS'deferred_income_log'
p909
g16
ssS'KISHKILL JOSEPH G'
p910
(dp911
S'expenses_log'
p912
F11.664237834889837
sg4
g6
sg5
g6
sS'bonus_log'
p913
g16
sg8
I116335
sg9
I00
sg10
I-51042
sS'restricted_stock_log'
p914
F13.849280867694775
sg12
S'joe.kishkill@enron.com'
p915
sg14
g6
sS'restricted_stock_deferred_log'
p916
g16
sS'salary_log'
p917
F12.068229111831808
sg18
g6
sS'director_fees_log'
p918
g16
sg20
g6
sg21
g6
sg22
g6
sg23
I465357
sS'exercised_stock_options_log'
p919
g16
sg25
g6
sS'total_stock_value_log'
p920
F13.849280867694775
sg27
g6
sg28
I1034346
sg29
g6
sS'deferral_payments_log'
p921
g16
sg31
g6
sS'total_payments_log'
p922
F13.465806971830084
sg33
I1034346
sS'long_term_incentive_log'
p923
g16
sg35
I174246
sg36
g910
sg37
I704896
sg38
g16
sg39
g6
sS'loan_advances_log'
p924
g16
sS'deferred_income_log'
p925
g16
ssS'WHALLEY LAWRENCE G'
p926
(dp927
S'expenses_log'
p928
F10.965418567609882
sg4
I6019
sg5
g6
sS'bonus_log'
p929
F14.914123179965662
sg8
I57838
sg9
I00
sg10
g6
sS'restricted_stock_log'
p930
F14.843764042684295
sg12
S'greg.whalley@enron.com'
p931
sg14
I808346
sS'restricted_stock_deferred_log'
p932
g16
sS'salary_log'
p933
F13.142881434993724
sg18
g6
sS'director_fees_log'
p934
g16
sg20
I3920
sg21
g6
sg22
I556
sg23
I301026
sS'exercised_stock_options_log'
p935
F15.004256317034553
sg25
g6
sS'total_stock_value_log'
p936
F15.620373467575348
sg27
I3000000
sg28
I6079137
sg29
I186
sS'deferral_payments_log'
p937
g16
sg31
I24
sS'total_payments_log'
p938
F15.358290371208142
sg33
I2796177
sS'long_term_incentive_log'
p939
F13.60274670075918
sg35
I510364
sg36
g926
sg37
I4677574
sg38
F0.6281368821292775
sg39
I3282960
sS'loan_advances_log'
p940
g16
sS'deferred_income_log'
p941
g16
ssS'MCCONNELL MICHAEL S'
p942
(dp943
S'expenses_log'
p944
F11.306700484094714
sg4
I3329
sg5
g6
sS'bonus_log'
p945
F13.910821646859095
sg8
I81364
sg9
I00
sg10
g6
sS'restricted_stock_log'
p946
F14.2063830431028
sg12
S'mike.mcconnell@enron.com'
p947
sg14
I554422
sS'restricted_stock_deferred_log'
p948
g16
sS'salary_log'
p949
F12.807759476171716
sg18
g6
sS'director_fees_log'
p950
g16
sg20
I2189
sg21
g6
sg22
I2742
sg23
I540
sS'exercised_stock_options_log'
p951
F14.299793624046158
sg25
g6
sS'total_stock_value_log'
p952
F14.947325487460102
sg27
I1100000
sg28
I3101279
sg29
I92
sS'deferral_payments_log'
p953
g16
sg31
I194
sS'total_payments_log'
p954
F14.55809769153515
sg33
I1478269
sS'long_term_incentive_log'
p955
F13.225683212288784
sg35
I365038
sg36
g942
sg37
I2101364
sg38
F0.4076758359413606
sg39
I1623010
sS'loan_advances_log'
p956
g16
sS'deferred_income_log'
p957
g16
ssS'PIRO JIM'
p958
(dp959
S'expenses_log'
p960
g16
sg4
I58
sg5
g6
sS'bonus_log'
p961
g16
sg8
g6
sg9
I00
sg10
g6
sS'restricted_stock_log'
p962
F10.764371277138544
sg12
S'jim.piro@enron.com'
p963
sg14
g6
sS'restricted_stock_deferred_log'
p964
g16
sS'salary_log'
p965
g16
sg18
g6
sS'director_fees_log'
p966
g16
sg20
I3
sg21
g6
sg22
I16
sg23
g6
sS'exercised_stock_options_log'
p967
g16
sg25
g6
sS'total_stock_value_log'
p968
F10.764371277138544
sg27
g6
sg28
I47304
sg29
I0
sS'deferral_payments_log'
p969
g16
sg31
I1
sS'total_payments_log'
p970
g16
sg33
I47304
sS'long_term_incentive_log'
p971
g16
sg35
g6
sg36
g958
sg37
g6
sg38
F0.05405405405405406
sg39
g6
sS'loan_advances_log'
p972
g16
sS'deferred_income_log'
p973
g16
ssS'DELAINEY DAVID W'
p974
(dp975
S'expenses_log'
p976
F11.364135391385066
sg4
I3093
sg5
g6
sS'bonus_log'
p977
F14.914123179965662
sg8
I86174
sg9
I01
sg10
g6
sS'restricted_stock_log'
p978
F14.095525059582528
sg12
S'david.delainey@enron.com'
p979
sg14
I1294981
sS'restricted_stock_deferred_log'
p980
g16
sS'salary_log'
p981
F12.808101846721332
sg18
g6
sS'director_fees_log'
p982
g16
sg20
I2097
sg21
g6
sg22
I3069
sg23
I1661
sS'exercised_stock_options_log'
p983
F14.64454872012781
sg25
g6
sS'total_stock_value_log'
p984
F15.100398243356087
sg27
I3000000
sg28
I3614261
sg29
I66
sS'deferral_payments_log'
p985
g16
sg31
I609
sS'total_payments_log'
p986
F15.373229822402909
sg33
I1323148
sS'long_term_incentive_log'
p987
F14.074007353405275
sg35
I365163
sg36
g974
sg37
I4747979
sg38
F0.4498539435248296
sg39
I2291113
sS'loan_advances_log'
p988
g16
sS'deferred_income_log'
p989
g16
ssS'SULLIVAN-SHAKLOVITZ COLLEEN'
p990
(dp991
S'expenses_log'
p992
g16
sg4
g6
sg5
I181993
sS'bonus_log'
p993
F11.51293546492023
sg8
g6
sg9
I00
sg10
g6
sS'restricted_stock_log'
p994
g16
sg12
g6
sg14
I554422
sS'restricted_stock_deferred_log'
p995
g16
sS'salary_log'
p996
F12.000154874881032
sg18
g6
sS'director_fees_log'
p997
g16
sg20
g6
sg21
g6
sg22
g6
sg23
I162
sS'exercised_stock_options_log'
p998
F14.124740792203639
sg25
g6
sS'total_stock_value_log'
p999
F14.124740792203639
sg27
I100000
sg28
I1362375
sg29
g6
sS'deferral_payments_log'
p1000
F12.11172899848254
sg31
g6
sS'total_payments_log'
p1001
F13.814867351151115
sg33
g6
sS'long_term_incentive_log'
p1002
F13.225683212288784
sg35
I162779
sg36
g990
sg37
I999356
sg38
g16
sg39
I1362375
sS'loan_advances_log'
p1003
g16
sS'deferred_income_log'
p1004
g16
ssS'WROBEL BRUCE'
p1005
(dp1006
S'expenses_log'
p1007
g16
sg4
g6
sg5
g6
sS'bonus_log'
p1008
g16
sg8
g6
sg9
I00
sg10
g6
sS'restricted_stock_log'
p1009
g16
sg12
g6
sg14
g6
sS'restricted_stock_deferred_log'
p1010
g16
sS'salary_log'
p1011
g16
sg18
g6
sS'director_fees_log'
p1012
g16
sg20
g6
sg21
g6
sg22
g6
sg23
g6
sS'exercised_stock_options_log'
p1013
F11.843171214332553
sg25
g6
sS'total_stock_value_log'
p1014
F11.843171214332553
sg27
g6
sg28
I139130
sg29
g6
sS'deferral_payments_log'
p1015
g16
sg31
g6
sS'total_payments_log'
p1016
g16
sg33
g6
sS'long_term_incentive_log'
p1017
g16
sg35
g6
sg36
g1005
sg37
g6
sg38
g16
sg39
I139130
sS'loan_advances_log'
p1018
g16
sS'deferred_income_log'
p1019
g16
ssS'LINDHOLM TOD A'
p1020
(dp1021
S'expenses_log'
p1022
F10.963497603422296
sg4
g6
sg5
I204075
sS'bonus_log'
p1023
F12.206077645517674
sg8
I57727
sg9
I00
sg10
g6
sS'restricted_stock_log'
p1024
F13.151626990450762
sg12
S'tod.lindholm@enron.com'
p1025
sg14
I175000
sS'restricted_stock_deferred_log'
p1026
g16
sS'salary_log'
p1027
F12.37352588129117
sg18
g6
sS'director_fees_log'
p1028
g16
sg20
g6
sg21
g6
sg22
g6
sg23
I2630
sS'exercised_stock_options_log'
p1029
F14.751353689751918
sg25
g6
sS'total_stock_value_log'
p1030
F14.935300019004572
sg27
I200000
sg28
I3064208
sg29
g6
sS'deferral_payments_log'
p1031
F12.226247752466806
sg31
g6
sS'total_payments_log'
p1032
F13.682995791257603
sg33
I514847
sS'long_term_incentive_log'
p1033
F12.07254696717504
sg35
I236457
sg36
g1020
sg37
I875889
sg38
g16
sg39
I2549361
sS'loan_advances_log'
p1034
g16
sS'deferred_income_log'
p1035
g16
ssS'MEYER JEROME J'
p1036
(dp1037
S'expenses_log'
p1038
F7.674152921281675
sg4
g6
sg5
g6
sS'bonus_log'
p1039
g16
sg8
I2151
sg9
I00
sg10
I-38346
sS'restricted_stock_log'
p1040
g16
sg12
g6
sg14
g6
sS'restricted_stock_deferred_log'
p1041
g16
sS'salary_log'
p1042
g16
sg18
g6
sS'director_fees_log'
p1043
F10.554431576877635
sg20
g6
sg21
g6
sg22
g6
sg23
g6
sS'exercised_stock_options_log'
p1044
g16
sg25
I38346
sS'total_stock_value_log'
p1045
g16
sg27
g6
sg28
g6
sg29
g6
sS'deferral_payments_log'
p1046
g16
sg31
g6
sS'total_payments_log'
p1047
F7.674152921281675
sg33
g6
sS'long_term_incentive_log'
p1048
g16
sg35
g6
sg36
g1036
sg37
I2151
sg38
g16
sg39
g6
sS'loan_advances_log'
p1049
g16
sS'deferred_income_log'
p1050
g16
ssS'LAY KENNETH L'
p1051
(dp1052
S'expenses_log'
p1053
F11.511254068965794
sg4
I4273
sg5
I202911
sS'bonus_log'
p1054
F15.76142084987672
sg8
I99832
sg9
I01
sg10
I-300000
sS'restricted_stock_log'
p1055
F16.507546207941665
sg12
S'kenneth.lay@enron.com'
p1056
sg14
I3600000
sS'restricted_stock_deferred_log'
p1057
g16
sS'salary_log'
p1058
F13.885336948644234
sg18
g6
sS'director_fees_log'
p1059
g16
sg20
I2411
sg21
I81525000
sg22
I36
sg23
I10359729
sS'exercised_stock_options_log'
p1060
F17.3520655595157
sg25
g6
sS'total_stock_value_log'
p1061
F17.70957484664781
sg27
I7000000
sg28
I49110078
sg29
I123
sS'deferral_payments_log'
p1062
F12.220527666499757
sg31
I16
sS'total_payments_log'
p1063
F18.45565972366062
sg33
I14761694
sS'long_term_incentive_log'
p1064
F15.096444681204078
sg35
I1072321
sg36
g1051
sg37
I103559793
sg38
F0.5917846368066837
sg39
I34348384
sS'loan_advances_log'
p1065
F18.216420291905834
sS'deferred_income_log'
p1066
g16
ssS'BUTTS ROBERT H'
p1067
(dp1068
S'expenses_log'
p1069
F9.149634496858788
sg4
g6
sg5
g6
sS'bonus_log'
p1070
F13.527829818844937
sg8
I9410
sg9
I00
sg10
I-75000
sS'restricted_stock_log'
p1071
F12.942327207124054
sg12
S'bob.butts@enron.com'
p1072
sg14
I175000
sS'restricted_stock_deferred_log'
p1073
g16
sS'salary_log'
p1074
F12.474254569934315
sg18
g6
sS'director_fees_log'
p1075
g16
sg20
g6
sg21
g6
sg22
g6
sg23
I150656
sS'exercised_stock_options_log'
p1076
g16
sg25
g6
sS'total_stock_value_log'
p1077
F12.942327207124054
sg27
I750000
sg28
I417619
sg29
g6
sS'deferral_payments_log'
p1078
g16
sg31
g6
sS'total_payments_log'
p1079
F14.055773138945462
sg33
I417619
sS'long_term_incentive_log'
p1080
F12.07254696717504
sg35
I261516
sg36
g1067
sg37
I1271582
sg38
g16
sg39
g6
sS'loan_advances_log'
p1081
g16
sS'deferred_income_log'
p1082
g16
ssS'OLSON CINDY K'
p1083
(dp1084
S'expenses_log'
p1085
F11.063383069621135
sg4
I1184
sg5
I77716
sS'bonus_log'
p1086
F13.527829818844937
sg8
I63791
sg9
I00
sg10
g6
sS'restricted_stock_log'
p1087
F13.784772961217406
sg12
S'cindy.olson@enron.com'
p1088
sg14
I100000
sS'restricted_stock_deferred_log'
p1089
g16
sS'salary_log'
p1090
F12.704053122503483
sg18
g6
sS'director_fees_log'
p1091
g16
sg20
I856
sg21
g6
sg22
I52
sg23
I972
sS'exercised_stock_options_log'
p1092
F14.308397236698932
sg25
g6
sS'total_stock_value_log'
p1093
F14.77362016330971
sg27
I750000
sg28
I2606763
sg29
I20
sS'deferral_payments_log'
p1094
F11.26082930264344
sg31
I15
sS'total_payments_log'
p1095
F14.09432190158285
sg33
I969729
sS'long_term_incentive_log'
p1096
F11.51293546492023
sg35
I329078
sg36
g1083
sg37
I1321557
sg38
F0.720873786407767
sg39
I1637034
sS'loan_advances_log'
p1097
g16
sS'deferred_income_log'
p1098
g16
ssS'MCDONALD REBECCA'
p1099
(dp1100
S'expenses_log'
p1101
g16
sg4
I894
sg5
g6
sS'bonus_log'
p1102
g16
sg8
g6
sg9
I00
sg10
g6
sS'restricted_stock_log'
p1103
F13.747302378525973
sg12
S'rebecca.mcdonald@enron.com'
p1104
sg14
g6
sS'restricted_stock_deferred_log'
p1105
g16
sS'salary_log'
p1106
g16
sg18
g6
sS'director_fees_log'
p1107
g16
sg20
I720
sg21
g6
sg22
I13
sg23
g6
sS'exercised_stock_options_log'
p1108
F13.537517396059737
sg25
g6
sS'total_stock_value_log'
p1109
F14.341047635675224
sg27
g6
sg28
I1691366
sg29
I54
sS'deferral_payments_log'
p1110
g16
sg31
I1
sS'total_payments_log'
p1111
g16
sg33
I934065
sS'long_term_incentive_log'
p1112
g16
sg35
g6
sg36
g1099
sg37
g6
sg38
F0.8544652701212789
sg39
I757301
sS'loan_advances_log'
p1113
g16
sS'deferred_income_log'
p1114
g16
ssS'CUMBERLAND MICHAEL S'
p1115
(dp1116
S'expenses_log'
p1117
F10.014357861367552
sg4
g6
sg5
g6
sS'bonus_log'
p1118
F12.691583538230217
sg8
I22344
sg9
I00
sg10
g6
sS'restricted_stock_log'
p1119
F12.24500966459994
sg12
g6
sg14
I275000
sS'restricted_stock_deferred_log'
p1120
g16
sS'salary_log'
p1121
F12.127570417375216
sg18
g6
sS'director_fees_log'
p1122
g16
sg20
g6
sg21
g6
sg22
g6
sg23
I713
sS'exercised_stock_options_log'
p1123
g16
sg25
g6
sS'total_stock_value_log'
p1124
F12.24500966459994
sg27
I325000
sg28
I207940
sg29
g6
sS'deferral_payments_log'
p1125
g16
sg31
g6
sS'total_payments_log'
p1126
F13.602264118265332
sg33
I207940
sS'long_term_incentive_log'
p1127
F12.524530013005734
sg35
I184899
sg36
g1115
sg37
I807956
sg38
g16
sg39
g6
sS'loan_advances_log'
p1128
g16
sS'deferred_income_log'
p1129
g16
ssS'GAHN ROBERT S'
p1130
(dp1131
S'expenses_log'
p1132
F10.82139697362574
sg4
g6
sg5
I73122
sS'bonus_log'
p1133
F13.141913031529024
sg8
I50080
sg9
I00
sg10
I-1042
sS'restricted_stock_log'
p1134
F12.368918271656794
sg12
g6
sg14
g6
sS'restricted_stock_deferred_log'
p1135
g16
sS'salary_log'
p1136
F12.16529752491132
sg18
g6
sS'director_fees_log'
p1137
g16
sg20
g6
sg21
g6
sg22
g6
sg23
I76547
sS'exercised_stock_options_log'
p1138
F11.32945925330878
sg25
g6
sS'total_stock_value_log'
p1139
F12.671716785998456
sg27
I509870
sg28
I318607
sg29
g6
sS'deferral_payments_log'
p1140
F11.199898233732778
sg31
g6
sS'total_payments_log'
p1141
F13.710800941536686
sg33
I235370
sS'long_term_incentive_log'
p1142
g16
sg35
I192008
sg36
g1130
sg37
I900585
sg38
g16
sg39
I83237
sS'loan_advances_log'
p1143
g16
sS'deferred_income_log'
p1144
g16
ssS'MCCLELLAN GEORGE'
p1145
(dp1146
S'expenses_log'
p1147
F12.340446183450783
sg4
I1744
sg5
g6
sS'bonus_log'
p1148
F13.710151153416941
sg8
I228763
sg9
I00
sg10
I-125000
sS'restricted_stock_log'
p1149
F12.997020084891032
sg12
S'george.mcclellan@enron.com'
p1150
sg14
g6
sS'restricted_stock_deferred_log'
p1151
g16
sS'salary_log'
p1152
F12.481482217979835
sg18
g6
sS'director_fees_log'
p1153
g16
sg20
I1469
sg21
g6
sg22
I49
sg23
I51587
sS'exercised_stock_options_log'
p1154
F13.135804637570123
sg25
g6
sS'total_stock_value_log'
p1155
F13.76196420102062
sg27
I900000
sg28
I947861
sg29
I52
sS'deferral_payments_log'
p1156
g16
sg31
I0
sS'total_payments_log'
p1157
F14.092205492263908
sg33
I441096
sS'long_term_incentive_log'
p1158
g16
sg35
I263413
sg36
g1145
sg37
I1318763
sg38
F0.8482989403234802
sg39
I506765
sS'loan_advances_log'
p1159
g16
sS'deferred_income_log'
p1160
g16
ssS'HERMANN ROBERT J'
p1161
(dp1162
S'expenses_log'
p1163
F10.786386947380556
sg4
g6
sg5
g6
sS'bonus_log'
p1164
F13.45883704259595
sg8
I48357
sg9
I00
sg10
I-280000
sS'restricted_stock_log'
p1165
F13.082859264097017
sg12
S'robert.hermann@enron.com'
p1166
sg14
I150000
sS'restricted_stock_deferred_log'
p1167
g16
sS'salary_log'
p1168
F12.478630927836107
sg18
g6
sS'director_fees_log'
p1169
g16
sg20
g6
sg21
g6
sg22
g6
sg23
I416441
sS'exercised_stock_options_log'
p1170
F12.141539457711714
sg25
g6
sS'total_stock_value_log'
p1171
F13.412242534497057
sg27
I700000
sg28
I668132
sg29
g6
sS'deferral_payments_log'
p1172
g16
sg31
g6
sS'total_payments_log'
p1173
F14.075920606502747
sg33
I480632
sS'long_term_incentive_log'
p1174
F11.918397239722838
sg35
I262663
sg36
g1161
sg37
I1297461
sg38
g16
sg39
I187500
sS'loan_advances_log'
p1175
g16
sS'deferred_income_log'
p1176
g16
ssS'SCRIMSHAW MATTHEW'
p1177
(dp1178
S'expenses_log'
p1179
g16
sg4
g6
sg5
g6
sS'bonus_log'
p1180
g16
sg8
g6
sg9
I00
sg10
g6
sS'restricted_stock_log'
p1181
g16
sg12
S'matthew.scrimshaw@enron.com'
p1182
sg14
g6
sS'restricted_stock_deferred_log'
p1183
g16
sS'salary_log'
p1184
g16
sg18
g6
sS'director_fees_log'
p1185
g16
sg20
g6
sg21
g6
sg22
g6
sg23
g6
sS'exercised_stock_options_log'
p1186
F13.54049196413251
sg25
g6
sS'total_stock_value_log'
p1187
F13.54049196413251
sg27
g6
sg28
I759557
sg29
g6
sS'deferral_payments_log'
p1188
g16
sg31
g6
sS'total_payments_log'
p1189
g16
sg33
g6
sS'long_term_incentive_log'
p1190
g16
sg35
g6
sg36
g1177
sg37
g6
sg38
g16
sg39
I759557
sS'loan_advances_log'
p1191
g16
sS'deferred_income_log'
p1192
g16
ssS'GATHMANN WILLIAM D'
p1193
(dp1194
S'expenses_log'
p1195
g16
sg4
g6
sg5
g6
sS'bonus_log'
p1196
g16
sg8
g6
sg9
I00
sg10
g6
sS'restricted_stock_log'
p1197
F12.483757411025426
sg12
g6
sg14
g6
sS'restricted_stock_deferred_log'
p1198
g16
sS'salary_log'
p1199
g16
sg18
I-72419
sS'director_fees_log'
p1200
g16
sg20
g6
sg21
g6
sg22
g6
sg23
g6
sS'exercised_stock_options_log'
p1201
F14.377276603865726
sg25
g6
sS'total_stock_value_log'
p1202
F14.480958121925482
sg27
g6
sg28
I1945360
sg29
g6
sS'deferral_payments_log'
p1203
g16
sg31
g6
sS'total_payments_log'
p1204
g16
sg33
I264013
sS'long_term_incentive_log'
p1205
g16
sg35
g6
sg36
g1193
sg37
g6
sg38
g16
sg39
I1753766
sS'loan_advances_log'
p1206
g16
sS'deferred_income_log'
p1207
g16
ssS'HAEDICKE MARK E'
p1208
(dp1209
S'expenses_log'
p1210
F11.240722963366833
sg4
I4009
sg5
I2157527
sS'bonus_log'
p1211
F13.955273369904273
sg8
I76169
sg9
I00
sg10
I-934484
sS'restricted_stock_log'
p1212
F13.169571338168879
sg12
S'mark.haedicke@enron.com'
p1213
sg14
I983346
sS'restricted_stock_deferred_log'
p1214
g16
sS'salary_log'
p1215
F12.83234791805487
sg18
I-329825
sS'director_fees_log'
p1216
g16
sg20
I1847
sg21
g6
sg22
I1941
sg23
I52382
sS'exercised_stock_options_log'
p1217
F13.31916459608806
sg25
g6
sS'total_stock_value_log'
p1218
F13.596228292282436
sg27
I1150000
sg28
I803094
sg29
I180
sS'deferral_payments_log'
p1219
F14.584473679839284
sg31
I61
sS'total_payments_log'
p1220
F15.165935743249896
sg33
I524169
sS'long_term_incentive_log'
p1221
F13.798717337856397
sg35
I374125
sg36
g1208
sg37
I3859065
sg38
F0.35092436974789915
sg39
I608750
sS'loan_advances_log'
p1222
g16
sS'deferred_income_log'
p1223
g16
ssS'BOWEN JR RAYMOND M'
p1224
(dp1225
S'expenses_log'
p1226
F11.096015109177323
sg4
I1858
sg5
g6
sS'bonus_log'
p1227
F14.115615891155079
sg8
I65907
sg9
I01
sg10
I-833
sS'restricted_stock_log'
p1228
F12.437406564028082
sg12
S'raymond.bowen@enron.com'
p1229
sg14
I974293
sS'restricted_stock_deferred_log'
p1230
g16
sS'salary_log'
p1231
F12.537539519052972
sg18
g6
sS'director_fees_log'
p1232
g16
sg20
I1593
sg21
g6
sg22
I27
sg23
I1621
sS'exercised_stock_options_log'
p1233
g16
sg25
g6
sS'total_stock_value_log'
p1234
F12.437406564028082
sg27
I1350000
sg28
I252055
sg29
I140
sS'deferral_payments_log'
p1235
g16
sg31
I15
sS'total_payments_log'
p1236
F14.797435460532753
sg33
I252055
sS'long_term_incentive_log'
p1237
F13.789468385126996
sg35
I278601
sg36
g1224
sg37
I2669589
sg38
F0.9273209549071618
sg39
g6
sS'loan_advances_log'
p1238
g16
sS'deferred_income_log'
p1239
g16
ssS'GILLIS JOHN'
p1240
(dp1241
S'expenses_log'
p1242
g16
sg4
g6
sg5
g6
sS'bonus_log'
p1243
g16
sg8
g6
sg9
I00
sg10
g6
sS'restricted_stock_log'
p1244
F11.236367951187963
sg12
g6
sg14
g6
sS'restricted_stock_deferred_log'
p1245
g16
sS'salary_log'
p1246
g16
sg18
g6
sS'director_fees_log'
p1247
g16
sg20
g6
sg21
g6
sg22
g6
sg23
g6
sS'exercised_stock_options_log'
p1248
F9.190545744648004
sg25
g6
sS'total_stock_value_log'
p1249
F11.357931096004025
sg27
g6
sg28
I85641
sg29
g6
sS'deferral_payments_log'
p1250
g16
sg31
g6
sS'total_payments_log'
p1251
g16
sg33
I75838
sS'long_term_incentive_log'
p1252
g16
sg35
g6
sg36
g1240
sg37
g6
sg38
g16
sg39
I9803
sS'loan_advances_log'
p1253
g16
sS'deferred_income_log'
p1254
g16
ssS'FITZGERALD JAY L'
p1255
(dp1256
S'expenses_log'
p1257
F10.080419612045645
sg4
I936
sg5
g6
sS'bonus_log'
p1258
F12.765691290604371
sg8
I23870
sg9
I00
sg10
g6
sS'restricted_stock_log'
p1259
F13.771324578251866
sg12
S'jay.fitzgerald@enron.com'
p1260
sg14
I556416
sS'restricted_stock_deferred_log'
p1261
g16
sS'salary_log'
p1262
F12.201853758528552
sg18
g6
sS'director_fees_log'
p1263
g16
sg20
I723
sg21
g6
sg22
I16
sg23
I285414
sS'exercised_stock_options_log'
p1264
F13.406732969646239
sg25
g6
sS'total_stock_value_log'
p1265
F14.298699996076401
sg27
I350000
sg28
I1621236
sg29
I1
sS'deferral_payments_log'
p1266
g16
sg31
I8
sS'total_payments_log'
p1267
F14.16253973066685
sg33
I956775
sS'long_term_incentive_log'
p1268
F13.229273292123265
sg35
I199157
sg36
g1255
sg37
I1414857
sg38
F0.7689075630252101
sg39
I664461
sS'loan_advances_log'
p1269
g16
sS'deferred_income_log'
p1270
g16
ssS'MORAN MICHAEL P'
p1271
(dp1272
S'expenses_log'
p1273
g16
sg4
I672
sg5
g6
sS'bonus_log'
p1274
g16
sg8
g6
sg9
I00
sg10
g6
sS'restricted_stock_log'
p1275
F11.992897989253253
sg12
S'michael.moran@enron.com'
p1276
sg14
g6
sS'restricted_stock_deferred_log'
p1277
g16
sS'salary_log'
p1278
g16
sg18
g6
sS'director_fees_log'
p1279
g16
sg20
I127
sg21
g6
sg22
I19
sg23
g6
sS'exercised_stock_options_log'
p1280
F10.994403634569768
sg25
g6
sS'total_stock_value_log'
p1281
F12.306560308099993
sg27
g6
sg28
I221141
sg29
I0
sS'deferral_payments_log'
p1282
g16
sg31
I0
sS'total_payments_log'
p1283
g16
sg33
I161602
sS'long_term_incentive_log'
p1284
g16
sg35
g6
sg36
g1271
sg37
g6
sg38
F0.1837916063675832
sg39
I59539
sS'loan_advances_log'
p1285
g16
sS'deferred_income_log'
p1286
g16
ssS'REDMOND BRIAN L'
p1287
(dp1288
S'expenses_log'
p1289
F9.594922269167922
sg4
I1671
sg5
g6
sS'bonus_log'
p1290
g16
sg8
I14689
sg9
I00
sg10
g6
sS'restricted_stock_log'
p1291
F12.851305028675391
sg12
S'brian.redmond@enron.com'
p1292
sg14
g6
sS'restricted_stock_deferred_log'
p1293
g16
sS'salary_log'
p1294
F11.48082573731012
sg18
g6
sS'director_fees_log'
p1295
g16
sg20
I1063
sg21
g6
sg22
I221
sg23
g6
sS'exercised_stock_options_log'
p1296
F15.831618186008837
sg25
g6
sS'total_stock_value_log'
p1297
F15.881147883355212
sg27
g6
sg28
I7890324
sg29
I204
sS'deferral_payments_log'
p1298
g16
sg31
I49
sS'total_payments_log'
p1299
F11.622048891988582
sg33
I381285
sS'long_term_incentive_log'
p1300
g16
sg35
I96840
sg36
g1287
sg37
I111529
sg38
F0.6955602536997886
sg39
I7509039
sS'loan_advances_log'
p1301
g16
sS'deferred_income_log'
p1302
g16
ssS'BAZELIDES PHILIP J'
p1303
(dp1304
S'expenses_log'
p1305
g16
sg4
g6
sg5
I684694
sS'bonus_log'
p1306
g16
sg8
g6
sg9
I00
sg10
g6
sS'restricted_stock_log'
p1307
g16
sg12
g6
sg14
I93750
sS'restricted_stock_deferred_log'
p1308
g16
sS'salary_log'
p1309
F11.29996736538096
sg18
g6
sS'director_fees_log'
p1310
g16
sg20
g6
sg21
g6
sg22
g6
sg23
I874
sS'exercised_stock_options_log'
p1311
F14.285290412174243
sg25
g6
sS'total_stock_value_log'
p1312
F14.285290412174243
sg27
g6
sg28
I1599641
sg29
g6
sS'deferral_payments_log'
p1313
F13.436728762614257
sg31
g6
sS'total_payments_log'
p1314
F13.664846957868004
sg33
g6
sS'long_term_incentive_log'
p1315
F11.448397610442436
sg35
I80818
sg36
g1303
sg37
I860136
sg38
g16
sg39
I1599641
sS'loan_advances_log'
p1316
g16
sS'deferred_income_log'
p1317
g16
ssS'BELDEN TIMOTHY N'
p1318
(dp1319
S'expenses_log'
p1320
F9.761693546918242
sg4
I7991
sg5
I2144013
sS'bonus_log'
p1321
F15.473738634567807
sg8
I17355
sg9
I01
sg10
I-2334434
sS'restricted_stock_log'
p1322
F11.967625082956092
sg12
S'tim.belden@enron.com'
p1323
sg14
g6
sS'restricted_stock_deferred_log'
p1324
g16
sS'salary_log'
p1325
F12.273731294003989
sg18
g6
sS'director_fees_log'
p1326
g16
sg20
I5521
sg21
g6
sg22
I484
sg23
I210698
sS'exercised_stock_options_log'
p1327
F13.767513928862593
sg25
g6
sS'total_stock_value_log'
p1328
F13.92050640713936
sg27
I5249999
sg28
I1110705
sg29
I228
sS'deferral_payments_log'
p1329
F14.578190331002256
sg31
I108
sS'total_payments_log'
p1330
F15.520555151696332
sg33
I157569
sS'long_term_incentive_log'
p1331
g16
sg35
I213999
sg36
g1318
sg37
I5501630
sg38
F0.6910914454277286
sg39
I953136
sS'loan_advances_log'
p1332
g16
sS'deferred_income_log'
p1333
g16
ssS'DURAN WILLIAM D'
p1334
(dp1335
S'expenses_log'
p1336
F10.157586987970783
sg4
I904
sg5
g6
sS'bonus_log'
p1337
F13.527829818844937
sg8
I25785
sg9
I00
sg10
g6
sS'restricted_stock_log'
p1338
F12.1497244915763
sg12
S'w.duran@enron.com'
p1339
sg14
I1105218
sS'restricted_stock_deferred_log'
p1340
g16
sS'salary_log'
p1341
F12.258157376649036
sg18
g6
sS'director_fees_log'
p1342
g16
sg20
I599
sg21
g6
sg22
I12
sg23
I1568
sS'exercised_stock_options_log'
p1343
F14.188362938678237
sg25
g6
sS'total_stock_value_log'
p1344
F14.31076213337902
sg27
I750000
sg28
I1640910
sg29
I106
sS'deferral_payments_log'
p1345
g16
sg31
I3
sS'total_payments_log'
p1346
F14.554235128208651
sg33
I189041
sS'long_term_incentive_log'
p1347
F13.915554063342187
sg35
I210692
sg36
g1334
sg37
I2093263
sg38
F0.7729257641921398
sg39
I1451869
sS'loan_advances_log'
p1348
g16
sS'deferred_income_log'
p1349
g16
ssS'THORN TERENCE H'
p1350
(dp1351
S'expenses_log'
p1352
F10.739565562285108
sg4
I266
sg5
I16586
sS'bonus_log'
p1353
g16
sg8
I46145
sg9
I00
sg10
g6
sS'restricted_stock_log'
p1354
F12.808531698128048
sg12
S'terence.thorn@enron.com'
p1355
sg14
I200000
sS'restricted_stock_deferred_log'
p1356
g16
sS'salary_log'
p1357
F12.31085599465944
sg18
g6
sS'director_fees_log'
p1358
g16
sg20
I73
sg21
g6
sg22
I41
sg23
I426629
sS'exercised_stock_options_log'
p1359
F15.30897112849533
sg25
g6
sS'total_stock_value_log'
p1360
F15.387827327603885
sg27
g6
sg28
I4817796
sg29
I0
sS'deferral_payments_log'
p1361
F9.716374535006043
sg31
I0
sS'total_payments_log'
p1362
F13.72279640556299
sg33
I365320
sS'long_term_incentive_log'
p1363
F12.206077645517674
sg35
I222093
sg36
g1350
sg37
I911453
sg38
F0.23778501628664495
sg39
I4452476
sS'loan_advances_log'
p1364
g16
sS'deferred_income_log'
p1365
g16
ssS'FASTOW ANDREW S'
p1366
(dp1367
S'expenses_log'
p1368
F10.931713141647238
sg4
g6
sg5
g6
sS'bonus_log'
p1369
F14.077875591662238
sg8
I55921
sg9
I01
sg10
I-1386055
sS'restricted_stock_log'
p1370
F14.400188506923373
sg12
S'andrew.fastow@enron.com'
p1371
sg14
I1736055
sS'restricted_stock_deferred_log'
p1372
g16
sS'salary_log'
p1373
F12.99611738171019
sg18
g6
sS'director_fees_log'
p1374
g16
sg20
g6
sg21
g6
sg22
g6
sg23
I277464
sS'exercised_stock_options_log'
p1375
g16
sg25
g6
sS'total_stock_value_log'
p1376
F14.400188506923373
sg27
I1300000
sg28
I1794412
sg29
g6
sS'deferral_payments_log'
p1377
g16
sg31
g6
sS'total_payments_log'
p1378
F14.70096427903627
sg33
I1794412
sS'long_term_incentive_log'
p1379
F14.36712643174667
sg35
I440698
sg36
g1366
sg37
I2424083
sg38
g16
sg39
g6
sS'loan_advances_log'
p1380
g16
sS'deferred_income_log'
p1381
g16
ssS'FOY JOE'
p1382
(dp1383
S'expenses_log'
p1384
g16
sg4
I57
sg5
I181755
sS'bonus_log'
p1385
g16
sg8
g6
sg9
I00
sg10
g6
sS'restricted_stock_log'
p1386
g16
sg12
S'tracy.foy@enron.com'
p1387
sg14
g6
sS'restricted_stock_deferred_log'
p1388
g16
sS'salary_log'
p1389
g16
sg18
g6
sS'director_fees_log'
p1390
g16
sg20
I2
sg21
g6
sg22
I13
sg23
g6
sS'exercised_stock_options_log'
p1391
F12.746753144208723
sg25
g6
sS'total_stock_value_log'
p1392
F12.746753144208723
sg27
g6
sg28
I343434
sg29
I0
sS'deferral_payments_log'
p1393
F12.110420407230512
sg31
I0
sS'total_payments_log'
p1394
F12.110420407230512
sg33
g6
sS'long_term_incentive_log'
p1395
g16
sg35
g6
sg36
g1382
sg37
I181755
sg38
F0.02857142857142857
sg39
I343434
sS'loan_advances_log'
p1396
g16
sS'deferred_income_log'
p1397
g16
ssS'CALGER CHRISTOPHER F'
p1398
(dp1399
S'expenses_log'
p1400
F10.486233757860406
sg4
I2598
sg5
g6
sS'bonus_log'
p1401
F14.038654909278163
sg8
I35818
sg9
I01
sg10
I-262500
sS'restricted_stock_log'
p1402
F11.744259383468137
sg12
S'christopher.calger@enron.com'
p1403
sg14
I375304
sS'restricted_stock_deferred_log'
p1404
g16
sS'salary_log'
p1405
F12.38918555578803
sg18
g6
sS'director_fees_log'
p1406
g16
sg20
I2188
sg21
g6
sg22
I144
sg23
I486
sS'exercised_stock_options_log'
p1407
g16
sg25
g6
sS'total_stock_value_log'
p1408
F11.744259383468137
sg27
I1250000
sg28
I126027
sg29
I199
sS'deferral_payments_log'
p1409
g16
sg31
I25
sS'total_payments_log'
p1410
F14.309778659380862
sg33
I126027
sS'long_term_incentive_log'
p1411
F12.83549430770956
sg35
I240189
sg36
g1398
sg37
I1639297
sg38
F0.8796498905908097
sg39
g6
sS'loan_advances_log'
p1412
g16
sS'deferred_income_log'
p1413
g16
ssS'RICE KENNETH D'
p1414
(dp1415
S'expenses_log'
p1416
F10.75685978366411
sg4
I905
sg5
g6
sS'bonus_log'
p1417
F14.375126917328105
sg8
I46950
sg9
I01
sg10
I-3504386
sS'restricted_stock_log'
p1418
F14.826516747375974
sg12
S'ken.rice@enron.com'
p1419
sg14
I1617011
sS'restricted_stock_deferred_log'
p1420
g16
sS'salary_log'
p1421
F12.949525507948925
sg18
g6
sS'director_fees_log'
p1422
g16
sg20
I864
sg21
g6
sg22
I18
sg23
I174839
sS'exercised_stock_options_log'
p1423
F16.80089831098255
sg25
g6
sS'total_stock_value_log'
p1424
F16.930914748780708
sg27
I1750000
sg28
I22542539
sg29
I42
sS'deferral_payments_log'
p1425
g16
sg31
I4
sS'total_payments_log'
p1426
F13.132414693257351
sg33
I2748364
sS'long_term_incentive_log'
p1427
F14.296090559681986
sg35
I420636
sg36
g1414
sg37
I505050
sg38
F0.9859154929577465
sg39
I19794175
sS'loan_advances_log'
p1428
g16
sS'deferred_income_log'
p1429
g16
ssS'KAMINSKI WINCENTY J'
p1430
(dp1431
S'expenses_log'
p1432
F11.33363132093428
sg4
I4607
sg5
g6
sS'bonus_log'
p1433
F12.899222326086994
sg8
I83585
sg9
I00
sg10
g6
sS'restricted_stock_log'
p1434
F11.744259383468137
sg12
S'vince.kaminski@enron.com'
p1435
sg14
I323466
sS'restricted_stock_deferred_log'
p1436
g16
sS'salary_log'
p1437
F12.524897216969846
sg18
g6
sS'director_fees_log'
p1438
g16
sg20
I583
sg21
g6
sg22
I14368
sg23
I4669
sS'exercised_stock_options_log'
p1439
F13.653004569559233
sg25
g6
sS'total_stock_value_log'
p1440
F13.791256799063534
sg27
I400000
sg28
I976037
sg29
I41
sS'deferral_payments_log'
p1441
g16
sg31
I171
sS'total_payments_log'
p1442
F13.898768399244425
sg33
I126027
sS'long_term_incentive_log'
p1443
F12.686852378446222
sg35
I275101
sg36
g1430
sg37
I1086821
sg38
F0.04189723320158103
sg39
I850010
sS'loan_advances_log'
p1444
g16
sS'deferred_income_log'
p1445
g16
ssS'COX DAVID'
p1446
(dp1447
S'expenses_log'
p1448
F10.23501903226617
sg4
I102
sg5
g6
sS'bonus_log'
p1449
F13.592368256649284
sg8
I27861
sg9
I00
sg10
I-41250
sS'restricted_stock_log'
p1450
F12.842869027217862
sg12
S'chip.cox@enron.com'
p1451
sg14
g6
sS'restricted_stock_deferred_log'
p1452
g16
sS'salary_log'
p1453
F12.658068223764037
sg18
g6
sS'director_fees_log'
p1454
g16
sg20
I71
sg21
g6
sg22
I33
sg23
I494
sS'exercised_stock_options_log'
p1455
F11.674636067860058
sg25
g6
sS'total_stock_value_log'
p1456
F13.113593030096668
sg27
I800000
sg28
I495633
sg29
I0
sS'deferral_payments_log'
p1457
g16
sg31
I4
sS'total_payments_log'
p1458
F13.91208720818355
sg33
I378082
sS'long_term_incentive_log'
p1459
g16
sg35
I314288
sg36
g1446
sg37
I1101393
sg38
F0.5555555555555556
sg39
I117551
sS'loan_advances_log'
p1460
g16
sS'deferred_income_log'
p1461
g16
ssS'OVERDYKE JR JERE C'
p1462
(dp1463
S'expenses_log'
p1464
F9.843472120126142
sg4
g6
sg5
g6
sS'bonus_log'
p1465
g16
sg8
I18834
sg9
I00
sg10
g6
sS'restricted_stock_log'
p1466
F14.52895877100766
sg12
S'jere.overdyke@enron.com'
p1467
sg14
I135836
sS'restricted_stock_deferred_log'
p1468
g16
sS'salary_log'
p1469
F11.461021457819806
sg18
g6
sS'director_fees_log'
p1470
g16
sg20
g6
sg21
g6
sg22
g6
sg23
I176
sS'exercised_stock_options_log'
p1471
F15.476891563620926
sg25
g6
sS'total_stock_value_log'
p1472
F15.804424776225149
sg27
g6
sg28
I7307594
sg29
g6
sS'deferral_payments_log'
p1473
g16
sg31
g6
sS'total_payments_log'
p1474
F12.428367837088988
sg33
I2041016
sS'long_term_incentive_log'
p1475
F11.819210916495647
sg35
I94941
sg36
g1462
sg37
I249787
sg38
g16
sg39
I5266578
sS'loan_advances_log'
p1476
g16
sS'deferred_income_log'
p1477
g16
ssS'PEREIRA PAULO V. FERRAZ'
p1478
(dp1479
S'expenses_log'
p1480
F10.23792199998891
sg4
g6
sg5
g6
sS'bonus_log'
p1481
g16
sg8
I27942
sg9
I00
sg10
I-101250
sS'restricted_stock_log'
p1482
g16
sg12
g6
sg14
g6
sS'restricted_stock_deferred_log'
p1483
g16
sS'salary_log'
p1484
g16
sg18
g6
sS'director_fees_log'
p1485
F11.525357861463222
sg20
g6
sg21
g6
sg22
g6
sg23
g6
sS'exercised_stock_options_log'
p1486
g16
sg25
I101250
sS'total_stock_value_log'
p1487
g16
sg27
g6
sg28
g6
sg29
g6
sS'deferral_payments_log'
p1488
g16
sg31
g6
sS'total_payments_log'
p1489
F10.23792199998891
sg33
g6
sS'long_term_incentive_log'
p1490
g16
sg35
g6
sg36
g1478
sg37
I27942
sg38
g16
sg39
g6
sS'loan_advances_log'
p1491
g16
sS'deferred_income_log'
p1492
g16
ssS'STABLER FRANK'
p1493
(dp1494
S'expenses_log'
p1495
F9.71202433782489
sg4
g6
sg5
g6
sS'bonus_log'
p1496
F13.122365377402328
sg8
I16514
sg9
I00
sg10
g6
sS'restricted_stock_log'
p1497
F13.145562191906851
sg12
S'frank.stabler@enron.com'
p1498
sg14
g6
sS'restricted_stock_deferred_log'
p1499
g16
sS'salary_log'
p1500
F12.38632122185069
sg18
g6
sS'director_fees_log'
p1501
g16
sg20
g6
sg21
g6
sg22
g6
sg23
I356071
sS'exercised_stock_options_log'
p1502
g16
sg25
g6
sS'total_stock_value_log'
p1503
F13.145562191906851
sg27
I500000
sg28
I511734
sg29
g6
sS'deferral_payments_log'
p1504
g16
sg31
g6
sS'total_payments_log'
p1505
F13.921749887352169
sg33
I511734
sS'long_term_incentive_log'
p1506
g16
sg35
I239502
sg36
g1493
sg37
I1112087
sg38
g16
sg39
g6
sS'loan_advances_log'
p1507
g16
sS'deferred_income_log'
p1508
g16
ssS'SKILLING JEFFREY K'
p1509
(dp1510
S'expenses_log'
p1511
F10.286604796980384
sg4
I3627
sg5
g6
sS'bonus_log'
p1512
F15.53827733427679
sg8
I29336
sg9
I01
sg10
g6
sS'restricted_stock_log'
p1513
F15.7388351337762
sg12
S'jeff.skilling@enron.com'
p1514
sg14
I1920000
sS'restricted_stock_deferred_log'
p1515
g16
sS'salary_log'
p1516
F13.921004164765082
sg18
g6
sS'director_fees_log'
p1517
g16
sg20
I2042
sg21
g6
sg22
I108
sg23
I22122
sS'exercised_stock_options_log'
p1518
F16.773021670646116
sg25
g6
sS'total_stock_value_log'
p1519
F17.077203429112846
sg27
I5600000
sg28
I26093672
sg29
I88
sS'deferral_payments_log'
p1520
g16
sg31
I30
sS'total_payments_log'
p1521
F15.976845056089664
sg33
I6843672
sS'long_term_incentive_log'
p1522
F14.467836264837162
sg35
I1111258
sg36
g1509
sg37
I8682716
sg38
F0.5783132530120482
sg39
I19250000
sS'loan_advances_log'
p1523
g16
sS'deferred_income_log'
p1524
g16
ssS'BLAKE JR. NORMAN P'
p1525
(dp1526
S'expenses_log'
p1527
F7.154615356913663
sg4
g6
sg5
g6
sS'bonus_log'
p1528
g16
sg8
I1279
sg9
I00
sg10
I-113784
sS'restricted_stock_log'
p1529
g16
sg12
g6
sg14
g6
sS'restricted_stock_deferred_log'
p1530
g16
sS'salary_log'
p1531
g16
sg18
g6
sS'director_fees_log'
p1532
F11.64206598179332
sg20
g6
sg21
g6
sg22
g6
sg23
g6
sS'exercised_stock_options_log'
p1533
g16
sg25
I113784
sS'total_stock_value_log'
p1534
g16
sg27
g6
sg28
g6
sg29
g6
sS'deferral_payments_log'
p1535
g16
sg31
g6
sS'total_payments_log'
p1536
F7.154615356913663
sg33
g6
sS'long_term_incentive_log'
p1537
g16
sg35
g6
sg36
g1525
sg37
I1279
sg38
g16
sg39
g6
sS'loan_advances_log'
p1538
g16
sS'deferred_income_log'
p1539
g16
ssS'SHERRICK JEFFREY B'
p1540
(dp1541
S'expenses_log'
p1542
g16
sg4
I613
sg5
g6
sS'bonus_log'
p1543
g16
sg8
g6
sg9
I00
sg10
g6
sS'restricted_stock_log'
p1544
F12.91410843858387
sg12
S'jeffrey.sherrick@enron.com'
p1545
sg14
g6
sS'restricted_stock_deferred_log'
p1546
g16
sS'salary_log'
p1547
g16
sg18
g6
sS'director_fees_log'
p1548
g16
sg20
I583
sg21
g6
sg22
I25
sg23
g6
sS'exercised_stock_options_log'
p1549
F14.17071341892033
sg25
g6
sS'total_stock_value_log'
p1550
F14.421174795819498
sg27
g6
sg28
I1832468
sg29
I39
sS'deferral_payments_log'
p1551
g16
sg31
I18
sS'total_payments_log'
p1552
g16
sg33
I405999
sS'long_term_incentive_log'
p1553
g16
sg35
g6
sg36
g1540
sg37
g6
sg38
F1.0031347962382444
sg39
I1426469
sS'loan_advances_log'
p1554
g16
sS'deferred_income_log'
p1555
g16
ssS'PRENTICE JAMES'
p1556
(dp1557
S'expenses_log'
p1558
g16
sg4
g6
sg5
I564348
sS'bonus_log'
p1559
g16
sg8
g6
sg9
I00
sg10
g6
sS'restricted_stock_log'
p1560
F12.249180026564108
sg12
S'james.prentice@enron.com'
p1561
sg14
g6
sS'restricted_stock_deferred_log'
p1562
g16
sS'salary_log'
p1563
g16
sg18
g6
sS'director_fees_log'
p1564
g16
sg20
g6
sg21
g6
sg22
g6
sg23
g6
sS'exercised_stock_options_log'
p1565
F13.694734046326026
sg25
g6
sS'total_stock_value_log'
p1566
F13.906302363454143
sg27
g6
sg28
I1095040
sg29
g6
sS'deferral_payments_log'
p1567
F13.243428133432172
sg31
g6
sS'total_payments_log'
p1568
F13.243428133432172
sg33
I208809
sS'long_term_incentive_log'
p1569
g16
sg35
g6
sg36
g1556
sg37
I564348
sg38
g16
sg39
I886231
sS'loan_advances_log'
p1570
g16
sS'deferred_income_log'
p1571
g16
ssS'GRAY RODNEY'
p1572
(dp1573
S'expenses_log'
p1574
g16
sg4
g6
sg5
I93585
sS'bonus_log'
p1575
g16
sg8
g6
sg9
I00
sg10
g6
sS'restricted_stock_log'
p1576
g16
sg12
g6
sg14
I365625
sS'restricted_stock_deferred_log'
p1577
g16
sS'salary_log'
p1578
F8.797246236703527
sg18
g6
sS'director_fees_log'
p1579
g16
sg20
g6
sg21
g6
sg22
g6
sg23
I680833
sS'exercised_stock_options_log'
p1580
g16
sg25
g6
sS'total_stock_value_log'
p1581
g16
sg27
g6
sg28
g6
sg29
g6
sS'deferral_payments_log'
p1582
F11.446636078629007
sg31
g6
sS'total_payments_log'
p1583
F13.952363054612608
sg33
g6
sS'long_term_incentive_log'
p1584
F12.809366232007253
sg35
I6615
sg36
g1572
sg37
I1146658
sg38
g16
sg39
g6
sS'loan_advances_log'
p1585
g16
sS'deferred_income_log'
p1586
g16
ssS'PICKERING MARK R'
p1587
(dp1588
S'expenses_log'
p1589
F10.362619801893228
sg4
I898
sg5
g6
sS'bonus_log'
p1590
F12.611541086966115
sg8
I31653
sg9
I00
sg10
g6
sS'restricted_stock_log'
p1591
g16
sg12
S'mark.pickering@enron.com'
p1592
sg14
g6
sS'restricted_stock_deferred_log'
p1593
g16
sS'salary_log'
p1594
F13.392448528201744
sg18
g6
sS'director_fees_log'
p1595
g16
sg20
I728
sg21
I400000
sg22
I67
sg23
g6
sS'exercised_stock_options_log'
p1596
F10.268095943298984
sg25
g6
sS'total_stock_value_log'
p1597
F10.268095943298984
sg27
I300000
sg28
I28798
sg29
I7
sS'deferral_payments_log'
p1598
g16
sg31
I0
sS'total_payments_log'
p1599
F14.142430891492294
sg33
g6
sS'long_term_incentive_log'
p1600
g16
sg35
I655037
sg36
g1587
sg37
I1386690
sg38
F0.7616580310880829
sg39
I28798
sS'loan_advances_log'
p1601
F12.899222326086994
sS'deferred_income_log'
p1602
g16
ssS'NOLES JAMES L'
p1603
(dp1604
S'expenses_log'
p1605
g16
sg4
g6
sg5
I774401
sS'bonus_log'
p1606
g16
sg8
g6
sg9
I00
sg10
g6
sS'restricted_stock_log'
p1607
F13.046048047751663
sg12
g6
sg14
g6
sS'restricted_stock_deferred_log'
p1608
g16
sS'salary_log'
p1609
g16
sg18
I-94556
sS'director_fees_log'
p1610
g16
sg20
g6
sg21
g6
sg22
g6
sg23
g6
sS'exercised_stock_options_log'
p1611
g16
sg25
g6
sS'total_stock_value_log'
p1612
F12.817754857482829
sg27
g6
sg28
I368705
sg29
g6
sS'deferral_payments_log'
p1613
F13.559846397585797
sg31
g6
sS'total_payments_log'
p1614
F13.559846397585797
sg33
I463261
sS'long_term_incentive_log'
p1615
g16
sg35
g6
sg36
g1603
sg37
I774401
sg38
g16
sg39
g6
sS'loan_advances_log'
p1616
g16
sS'deferred_income_log'
p1617
g16
ssS'KEAN STEVEN J'
p1618
(dp1619
S'expenses_log'
p1620
F10.644329058958736
sg4
I12754
sg5
g6
sS'bonus_log'
p1621
F13.815511557963774
sg8
I41953
sg9
I00
sg10
g6
sS'restricted_stock_log'
p1622
F15.234174088928967
sg12
S'steven.kean@enron.com'
p1623
sg14
I300000
sS'restricted_stock_deferred_log'
p1624
g16
sS'salary_log'
p1625
F12.910008913999112
sg18
g6
sS'director_fees_log'
p1626
g16
sg20
I3639
sg21
g6
sg22
I6759
sg23
I1231
sS'exercised_stock_options_log'
p1627
F14.519621911701174
sg25
g6
sS'total_stock_value_log'
p1628
F15.632554822131695
sg27
I1000000
sg28
I6153642
sg29
I140
sS'deferral_payments_log'
p1629
g16
sg31
I387
sS'total_payments_log'
p1630
F14.373709914663003
sg33
I4131594
sS'long_term_incentive_log'
p1631
F12.611541086966115
sg35
I404338
sg36
g1618
sg37
I1747522
sg38
F0.21349869317890638
sg39
I2022048
sS'loan_advances_log'
p1632
g16
sS'deferred_income_log'
p1633
g16
ssS'FOWLER PEGGY'
p1634
(dp1635
S'expenses_log'
p1636
g16
sg4
I517
sg5
g6
sS'bonus_log'
p1637
g16
sg8
g6
sg9
I00
sg10
g6
sS'restricted_stock_log'
p1638
F13.235997373242185
sg12
S'kulvinder.fowler@enron.com'
p1639
sg14
g6
sS'restricted_stock_deferred_log'
p1640
g16
sS'salary_log'
p1641
g16
sg18
g6
sS'director_fees_log'
p1642
g16
sg20
I10
sg21
g6
sg22
I36
sg23
g6
sS'exercised_stock_options_log'
p1643
F14.096605231064673
sg25
g6
sS'total_stock_value_log'
p1644
F14.44930521349946
sg27
g6
sg28
I1884748
sg29
I0
sS'deferral_payments_log'
p1645
g16
sg31
I0
sS'total_payments_log'
p1646
g16
sg33
I560170
sS'long_term_incentive_log'
p1647
g16
sg35
g6
sg36
g1634
sg37
g6
sg38
F0.018083182640144666
sg39
I1324578
sS'loan_advances_log'
p1648
g16
sS'deferred_income_log'
p1649
g16
ssS'WASAFF GEORGE'
p1650
(dp1651
S'expenses_log'
p1652
g16
sg4
I400
sg5
I831299
sS'bonus_log'
p1653
F12.691583538230217
sg8
g6
sg9
I00
sg10
I-583325
sS'restricted_stock_log'
p1654
F12.869193514583147
sg12
S'george.wasaff@enron.com'
p1655
sg14
I200000
sS'restricted_stock_deferred_log'
p1656
g16
sS'salary_log'
p1657
F12.468425371469557
sg18
g6
sS'director_fees_log'
p1658
g16
sg20
I337
sg21
g6
sg22
I30
sg23
I1425
sS'exercised_stock_options_log'
p1659
F14.327292324480066
sg25
g6
sS'total_stock_value_log'
p1660
F14.536481055098799
sg27
I325000
sg28
I2056427
sg29
I22
sS'deferral_payments_log'
p1661
F13.63074601951918
sg31
I7
sS'total_payments_log'
p1662
F13.849328239456284
sg33
I388167
sS'long_term_incentive_log'
p1663
F12.206077645517674
sg35
I259996
sg36
g1650
sg37
I1034395
sg38
F0.8511627906976744
sg39
I1668260
sS'loan_advances_log'
p1664
g16
sS'deferred_income_log'
p1665
g16
ssS'WHITE JR THOMAS E'
p1666
(dp1667
S'expenses_log'
p1668
F11.306565281690364
sg4
g6
sg5
g6
sS'bonus_log'
p1669
F13.017005083966255
sg8
I81353
sg9
I00
sg10
g6
sS'restricted_stock_log'
p1670
F16.44358457695785
sg12
S'thomas.white@enron.com'
p1671
sg14
g6
sS'restricted_stock_deferred_log'
p1672
g16
sS'salary_log'
p1673
F12.668371670390357
sg18
g6
sS'director_fees_log'
p1674
g16
sg20
g6
sg21
g6
sg22
g6
sg23
I1085463
sS'exercised_stock_options_log'
p1675
F14.075603013056686
sg25
g6
sS'total_stock_value_log'
p1676
F16.533123159899052
sg27
I450000
sg28
I15144123
sg29
g6
sS'deferral_payments_log'
p1677
g16
sg31
g6
sS'total_payments_log'
p1678
F14.475287080382383
sg33
I13847074
sS'long_term_incentive_log'
p1679
g16
sg35
I317543
sg36
g1666
sg37
I1934359
sg38
g16
sg39
I1297049
sS'loan_advances_log'
p1680
g16
sS'deferred_income_log'
p1681
g16
ssS'CHRISTODOULOU DIOMEDES'
p1682
(dp1683
S'expenses_log'
p1684
g16
sg4
g6
sg5
g6
sS'bonus_log'
p1685
g16
sg8
g6
sg9
I00
sg10
g6
sS'restricted_stock_log'
p1686
F13.764986441367837
sg12
S'diomedes.christodoulou@enron.com'
p1687
sg14
g6
sS'restricted_stock_deferred_log'
p1688
g16
sS'salary_log'
p1689
g16
sg18
g6
sS'director_fees_log'
p1690
g16
sg20
g6
sg21
g6
sg22
g6
sg23
g6
sS'exercised_stock_options_log'
p1691
F15.450061677453322
sg25
g6
sS'total_stock_value_log'
p1692
F15.620167496113183
sg27
g6
sg28
I6077885
sg29
g6
sS'deferral_payments_log'
p1693
g16
sg31
g6
sS'total_payments_log'
p1694
g16
sg33
I950730
sS'long_term_incentive_log'
p1695
g16
sg35
g6
sg36
g1682
sg37
g6
sg38
g16
sg39
I5127155
sS'loan_advances_log'
p1696
g16
sS'deferred_income_log'
p1697
g16
ssS'ALLEN PHILLIP K'
p1698
(dp1699
S'expenses_log'
p1700
F9.537411412656335
sg4
I2902
sg5
I2869717
sS'bonus_log'
p1701
F15.244625155788022
sg8
I13868
sg9
I00
sg10
I-3081055
sS'restricted_stock_log'
p1702
F11.744259383468137
sg12
S'phillip.allen@enron.com'
p1703
sg14
I304805
sS'restricted_stock_deferred_log'
p1704
g16
sS'salary_log'
p1705
F12.215805130874553
sg18
I-126027
sS'director_fees_log'
p1706
g16
sg20
I1407
sg21
g6
sg22
I2195
sg23
I152
sS'exercised_stock_options_log'
p1707
F14.36336719153978
sg25
g6
sS'total_stock_value_log'
p1708
F14.36336719153978
sg27
I4175000
sg28
I1729541
sg29
I47
sS'deferral_payments_log'
p1709
F14.869724325068464
sg31
I65
sS'total_payments_log'
p1710
F15.31612485401232
sg33
I126027
sS'long_term_incentive_log'
p1711
F12.62743078764025
sg35
I201955
sg36
g1698
sg37
I4484442
sg38
F0.2980184422209143
sg39
I1729541
sS'loan_advances_log'
p1712
g16
sS'deferred_income_log'
p1713
g16
ssS'SHARP VICTORIA T'
p1714
(dp1715
S'expenses_log'
p1716
F11.664255026325066
sg4
I3136
sg5
I187469
sS'bonus_log'
p1717
F13.304686600863562
sg8
I116337
sg9
I00
sg10
g6
sS'restricted_stock_log'
p1718
F12.269347869043216
sg12
S'vicki.sharp@enron.com'
p1719
sg14
I422158
sS'restricted_stock_deferred_log'
p1720
g16
sS'salary_log'
p1721
F12.421776591480489
sg18
g6
sS'director_fees_log'
p1722
g16
sg20
I2477
sg21
g6
sg22
I136
sg23
I2401
sS'exercised_stock_options_log'
p1723
F12.546373258842353
sg25
g6
sS'total_stock_value_log'
p1724
F13.110568085656999
sg27
I600000
sg28
I494136
sg29
I24
sS'deferral_payments_log'
p1725
F12.141374111591237
sg31
I6
sS'total_payments_log'
p1726
F14.27072536973657
sg33
I213063
sS'long_term_incentive_log'
p1727
F12.95313729930661
sg35
I248146
sg36
g1714
sg37
I1576511
sg38
F0.76619804400978
sg39
I281073
sS'loan_advances_log'
p1728
g16
sS'deferred_income_log'
p1729
g16
ssS'JAEDICKE ROBERT'
p1730
(dp1731
S'expenses_log'
p1732
g16
sg4
g6
sg5
g6
sS'bonus_log'
p1733
g16
sg8
g6
sg9
I00
sg10
I-25000
sS'restricted_stock_log'
p1734
F10.694078997756927
sg12
g6
sg14
g6
sS'restricted_stock_deferred_log'
p1735
g16
sS'salary_log'
p1736
g16
sg18
I-44093
sS'director_fees_log'
p1737
F11.596816144310951
sg20
g6
sg21
g6
sg22
g6
sg23
g6
sS'exercised_stock_options_log'
p1738
F12.975604312161424
sg25
I108750
sS'total_stock_value_log'
p1739
F12.975604312161424
sg27
g6
sg28
I431750
sg29
g6
sS'deferral_payments_log'
p1740
g16
sg31
g6
sS'total_payments_log'
p1741
F11.335603389914535
sg33
I44093
sS'long_term_incentive_log'
p1742
g16
sg35
g6
sg36
g1730
sg37
I83750
sg38
g16
sg39
I431750
sS'loan_advances_log'
p1743
g16
sS'deferred_income_log'
p1744
g16
ssS'WINOKUR JR. HERBERT S'
p1745
(dp1746
S'expenses_log'
p1747
F7.254177846456518
sg4
g6
sg5
g6
sS'bonus_log'
p1748
g16
sg8
I1413
sg9
I00
sg10
I-25000
sS'restricted_stock_log'
p1749
g16
sg12
g6
sg14
g6
sS'restricted_stock_deferred_log'
p1750
g16
sS'salary_log'
p1751
g16
sg18
g6
sS'director_fees_log'
p1752
F11.595242507459442
sg20
g6
sg21
g6
sg22
g6
sg23
g6
sS'exercised_stock_options_log'
p1753
g16
sg25
I108579
sS'total_stock_value_log'
p1754
g16
sg27
g6
sg28
g6
sg29
g6
sS'deferral_payments_log'
p1755
g16
sg31
g6
sS'total_payments_log'
p1756
F11.350324179140088
sg33
g6
sS'long_term_incentive_log'
p1757
g16
sg35
g6
sg36
g1745
sg37
I84992
sg38
g16
sg39
g6
sS'loan_advances_log'
p1758
g16
sS'deferred_income_log'
p1759
g16
ssS'BROWN MICHAEL'
p1760
(dp1761
S'expenses_log'
p1762
F10.805456211402726
sg4
I1486
sg5
g6
sS'bonus_log'
p1763
g16
sg8
I49288
sg9
I00
sg10
g6
sS'restricted_stock_log'
p1764
g16
sg12
S'michael.brown@enron.com'
p1765
sg14
g6
sS'restricted_stock_deferred_log'
p1766
g16
sS'salary_log'
p1767
g16
sg18
g6
sS'director_fees_log'
p1768
g16
sg20
I761
sg21
g6
sg22
I41
sg23
g6
sS'exercised_stock_options_log'
p1769
g16
sg25
g6
sS'total_stock_value_log'
p1770
g16
sg27
g6
sg28
g6
sg29
I13
sS'deferral_payments_log'
p1771
g16
sg31
I1
sS'total_payments_log'
p1772
F10.805456211402726
sg33
g6
sS'long_term_incentive_log'
p1773
g16
sg35
g6
sg36
g1760
sg37
I49288
sg38
F0.5075311067452521
sg39
g6
sS'loan_advances_log'
p1774
g16
sS'deferred_income_log'
p1775
g16
ssS'BADUM JAMES P'
p1776
(dp1777
S'expenses_log'
p1778
F8.156797046675651
sg4
g6
sg5
I178980
sS'bonus_log'
p1779
g16
sg8
I3486
sg9
I00
sg10
g6
sS'restricted_stock_log'
p1780
g16
sg12
g6
sg14
g6
sS'restricted_stock_deferred_log'
p1781
g16
sS'salary_log'
p1782
g16
sg18
g6
sS'director_fees_log'
p1783
g16
sg20
g6
sg21
g6
sg22
g6
sg23
g6
sS'exercised_stock_options_log'
p1784
F12.460009188616919
sg25
g6
sS'total_stock_value_log'
p1785
F12.460009188616919
sg27
g6
sg28
I257817
sg29
g6
sS'deferral_payments_log'
p1786
F12.09503493393769
sg31
g6
sS'total_payments_log'
p1787
F12.11432461373662
sg33
g6
sS'long_term_incentive_log'
p1788
g16
sg35
g6
sg36
g1776
sg37
I182466
sg38
g16
sg39
I257817
sS'loan_advances_log'
p1789
g16
sS'deferred_income_log'
p1790
g16
ssS'HUGHES JAMES A'
p1791
(dp1792
S'expenses_log'
p1793
g16
sg4
I719
sg5
g6
sS'bonus_log'
p1794
g16
sg8
g6
sg9
I00
sg10
g6
sS'restricted_stock_log'
p1795
F12.803339233631425
sg12
S'james.hughes@enron.com'
p1796
sg14
g6
sS'restricted_stock_deferred_log'
p1797
g16
sS'salary_log'
p1798
g16
sg18
g6
sS'director_fees_log'
p1799
g16
sg20
I589
sg21
g6
sg22
I34
sg23
g6
sS'exercised_stock_options_log'
p1800
F13.534429318666641
sg25
g6
sS'total_stock_value_log'
p1801
F13.927405179779301
sg27
g6
sg28
I1118394
sg29
I35
sS'deferral_payments_log'
p1802
g16
sg31
I5
sS'total_payments_log'
p1803
g16
sg33
I363428
sS'long_term_incentive_log'
p1804
g16
sg35
g6
sg36
g1791
sg37
g6
sg38
F0.8353253652058433
sg39
I754966
sS'loan_advances_log'
p1805
g16
sS'deferred_income_log'
p1806
g16
ssS'REYNOLDS LAWRENCE'
p1807
(dp1808
S'expenses_log'
p1809
F9.037176752966994
sg4
g6
sg5
I51365
sS'bonus_log'
p1810
F11.51293546492023
sg8
I8409
sg9
I00
sg10
I-200000
sS'restricted_stock_log'
p1811
F12.213465252749671
sg12
g6
sg14
I156250
sS'restricted_stock_deferred_log'
p1812
g16
sS'salary_log'
p1813
F11.243737975154612
sg18
I-140264
sS'director_fees_log'
p1814
g16
sg20
g6
sg21
g6
sg22
g6
sg23
I202052
sS'exercised_stock_options_log'
p1815
F15.241187397998814
sg25
g6
sS'total_stock_value_log'
p1816
F15.255793926769522
sg27
I100000
sg28
I4221891
sg29
g6
sS'deferral_payments_log'
p1817
F10.846731753970541
sg31
g6
sS'total_payments_log'
p1818
F12.88531358091555
sg33
I201483
sS'long_term_incentive_log'
p1819
F11.959218967578169
sg35
I76399
sg36
g1807
sg37
I394475
sg38
g16
sg39
I4160672
sS'loan_advances_log'
p1820
g16
sS'deferred_income_log'
p1821
g16
ssS'DIMICHELE RICHARD G'
p1822
(dp1823
S'expenses_log'
p1824
F10.486066234965218
sg4
g6
sg5
g6
sS'bonus_log'
p1825
F13.815511557963774
sg8
I35812
sg9
I00
sg10
g6
sS'restricted_stock_log'
p1826
F11.744259383468137
sg12
S'richard.dimichele@enron.com'
p1827
sg14
I694862
sS'restricted_stock_deferred_log'
p1828
g16
sS'salary_log'
p1829
F12.479106707791148
sg18
g6
sS'director_fees_log'
p1830
g16
sg20
g6
sg21
g6
sg22
g6
sg23
I374689
sS'exercised_stock_options_log'
p1831
F15.91863884066159
sg25
g6
sS'total_stock_value_log'
p1832
F15.933906310942772
sg27
I1000000
sg28
I8317782
sg29
g6
sS'deferral_payments_log'
p1833
g16
sg31
g6
sS'total_payments_log'
p1834
F14.677620462115184
sg33
I126027
sS'long_term_incentive_log'
p1835
F13.451469982813617
sg35
I262788
sg36
g1822
sg37
I2368151
sg38
g16
sg39
I8191755
sS'loan_advances_log'
p1836
g16
sS'deferred_income_log'
p1837
g16
ssS'BHATNAGAR SANJAY'
p1838
(dp1839
S'expenses_log'
p1840
g16
sg4
I523
sg5
g6
sS'bonus_log'
p1841
g16
sg8
g6
sg9
I00
sg10
g6
sS'restricted_stock_log'
p1842
g16
sg12
S'sanjay.bhatnagar@enron.com'
p1843
sg14
g6
sS'restricted_stock_deferred_log'
p1844
F16.55352666289695
sS'salary_log'
p1845
g16
sg18
I15456290
sS'director_fees_log'
p1846
F11.834030224460319
sg20
I463
sg21
g6
sg22
I29
sg23
I137864
sS'exercised_stock_options_log'
p1847
F14.772747820603724
sg25
I137864
sS'total_stock_value_log'
p1848
g16
sg27
g6
sS'total_stock_value'
p1849
S'NaN'
p1850
sg29
I0
sS'deferral_payments_log'
p1851
g16
sg31
I1
sS'total_payments_log'
p1852
F16.55352666289695
sg33
I-2604490
sS'long_term_incentive_log'
p1853
g16
sg35
g6
sg36
g1838
sg37
I15456290
sg38
F0.8405797101449275
sg39
I2604490
sS'loan_advances_log'
p1854
g16
sS'deferred_income_log'
p1855
g16
ssS'CARTER REBECCA C'
p1856
(dp1857
S'expenses_log'
p1858
g16
sg4
I312
sg5
g6
sS'bonus_log'
p1859
F12.611541086966115
sg8
g6
sg9
I00
sg10
I-159792
sS'restricted_stock_log'
p1860
F12.635586256395477
sg12
S'rebecca.carter@enron.com'
p1861
sg14
I75000
sS'restricted_stock_deferred_log'
p1862
g16
sS'salary_log'
p1863
F12.475374328825467
sg18
I-307301
sS'director_fees_log'
p1864
g16
sg20
I196
sg21
g6
sg22
I15
sg23
I540
sS'exercised_stock_options_log'
p1865
g16
sg25
g6
sS'total_stock_value_log'
p1866
g16
sg27
I300000
sg28
g6
sg29
I29
sS'deferral_payments_log'
p1867
g16
sg31
I7
sS'total_payments_log'
p1868
F13.076440897495115
sg33
I307301
sS'long_term_incentive_log'
p1869
F11.225256725762893
sg35
I261809
sg36
g1856
sg37
I477557
sg38
F0.709480122324159
sg39
g6
sS'loan_advances_log'
p1870
g16
sS'deferred_income_log'
p1871
g16
ssS'BUCHANAN HAROLD G'
p1872
(dp1873
S'expenses_log'
p1874
F6.398594934535208
sg4
I1088
sg5
g6
sS'bonus_log'
p1875
F13.122365377402328
sg8
I600
sg9
I00
sg10
g6
sS'restricted_stock_log'
p1876
F12.1497244915763
sg12
S'john.buchanan@enron.com'
p1877
sg14
I304805
sS'restricted_stock_deferred_log'
p1878
g16
sS'salary_log'
p1879
F12.421256603158433
sg18
g6
sS'director_fees_log'
p1880
g16
sg20
I23
sg21
g6
sg22
I125
sg23
I1215
sS'exercised_stock_options_log'
p1881
F13.623702142897141
sg25
g6
sS'total_stock_value_log'
p1882
F13.829912352473988
sg27
I500000
sg28
I1014505
sg29
I0
sS'deferral_payments_log'
p1883
g16
sg31
I0
sS'total_payments_log'
p1884
F13.86870813804835
sg33
I189041
sS'long_term_incentive_log'
p1885
F12.62743078764025
sg35
I248017
sg36
g1872
sg37
I1054637
sg38
F0.018961253091508656
sg39
I825464
sS'loan_advances_log'
p1886
g16
sS'deferred_income_log'
p1887
g16
ssS'YEAP SOON'
p1888
(dp1889
S'expenses_log'
p1890
F10.916868696841577
sg4
g6
sg5
g6
sS'bonus_log'
p1891
g16
sg8
I55097
sg9
I00
sg10
g6
sS'restricted_stock_log'
p1892
g16
sg12
g6
sg14
g6
sS'restricted_stock_deferred_log'
p1893
g16
sS'salary_log'
p1894
g16
sg18
g6
sS'director_fees_log'
p1895
g16
sg20
g6
sg21
g6
sg22
g6
sg23
g6
sS'exercised_stock_options_log'
p1896
F12.169195982942513
sg25
g6
sS'total_stock_value_log'
p1897
F12.169195982942513
sg27
g6
sg28
I192758
sg29
g6
sS'deferral_payments_log'
p1898
g16
sg31
g6
sS'total_payments_log'
p1899
F10.916868696841577
sg33
g6
sS'long_term_incentive_log'
p1900
g16
sg35
g6
sg36
g1888
sg37
I55097
sg38
g16
sg39
I192758
sS'loan_advances_log'
p1901
g16
sS'deferred_income_log'
p1902
g16
ssS'MURRAY JULIA H'
p1903
(dp1904
S'expenses_log'
p1905
F10.960947931156728
sg4
I2192
sg5
g6
sS'bonus_log'
p1906
F12.899222326086994
sg8
I57580
sg9
I00
sg10
g6
sS'restricted_stock_log'
p1907
F12.190877786147631
sg12
S'julia.murray@enron.com'
p1908
sg14
I125000
sS'restricted_stock_deferred_log'
p1909
g16
sS'salary_log'
p1910
F12.34272105022129
sg18
g6
sS'director_fees_log'
p1911
g16
sg20
I395
sg21
g6
sg22
I45
sg23
I330
sS'exercised_stock_options_log'
p1912
F12.900416609658889
sg25
g6
sS'total_stock_value_log'
p1913
F13.300445962438983
sg27
I400000
sg28
I597461
sg29
I11
sS'deferral_payments_log'
p1914
g16
sg31
I2
sS'total_payments_log'
p1915
F13.607495738096203
sg33
I196983
sS'long_term_incentive_log'
p1916
F11.736077016252437
sg35
I229284
sg36
g1903
sg37
I812194
sg38
F0.1823871256146625
sg39
I400478
sS'loan_advances_log'
p1917
g16
sS'deferred_income_log'
p1918
g16
ssS'GARLAND C KEVIN'
p1919
(dp1920
S'expenses_log'
p1921
F10.787379051963605
sg4
I209
sg5
g6
sS'bonus_log'
p1922
F13.652992804936396
sg8
I48405
sg9
I00
sg10
g6
sS'restricted_stock_log'
p1923
F12.468083001225496
sg12
S'kevin.garland@enron.com'
p1924
sg14
I375304
sS'restricted_stock_deferred_log'
p1925
g16
sS'salary_log'
p1926
F12.354264176274302
sg18
g6
sS'director_fees_log'
p1927
g16
sg20
I178
sg21
g6
sg22
I44
sg23
I60814
sS'exercised_stock_options_log'
p1928
F13.363342131708052
sg25
g6
sS'total_stock_value_log'
p1929
F13.705867552188252
sg27
I850000
sg28
I896153
sg29
I10
sS'deferral_payments_log'
p1930
g16
sg31
I27
sS'total_payments_log'
p1931
F14.264335238217493
sg33
I259907
sS'long_term_incentive_log'
p1932
F12.83549430770956
sg35
I231946
sg36
g1919
sg37
I1566469
sg38
F0.849802371541502
sg39
I636246
sS'loan_advances_log'
p1933
g16
sS'deferred_income_log'
p1934
g16
ssS'DODSON KEITH'
p1935
(dp1936
S'expenses_log'
p1937
F10.245835351328815
sg4
I176
sg5
g6
sS'bonus_log'
p1938
F11.156264806643742
sg8
I28164
sg9
I00
sg10
g6
sS'restricted_stock_log'
p1939
g16
sg12
S'keith.dodson@enron.com'
p1940
sg14
g6
sS'restricted_stock_deferred_log'
p1941
g16
sS'salary_log'
p1942
F12.305936079883606
sg18
g6
sS'director_fees_log'
p1943
g16
sg20
I114
sg21
g6
sg22
I14
sg23
I774
sS'exercised_stock_options_log'
p1944
g16
sg25
g6
sS'total_stock_value_log'
p1945
g16
sg27
I70000
sg28
g6
sg29
I10
sS'deferral_payments_log'
p1946
g16
sg31
I3
sS'total_payments_log'
p1947
F12.675895008348142
sg33
g6
sS'long_term_incentive_log'
p1948
g16
sg35
I221003
sg36
g1935
sg37
I319941
sg38
F0.6684210526315789
sg39
g6
sS'loan_advances_log'
p1949
g16
sS'deferred_income_log'
p1950
g16
ssS'YEAGER F SCOTT'
p1951
(dp1952
S'expenses_log'
p1953
F10.895775898636748
sg4
g6
sg5
g6
sS'bonus_log'
p1954
g16
sg8
I53947
sg9
I01
sg10
g6
sS'restricted_stock_log'
p1955
F15.089813299506257
sg12
S'scott.yeager@enron.com'
p1956
sg14
g6
sS'restricted_stock_deferred_log'
p1957
g16
sS'salary_log'
p1958
F11.972904010568875
sg18
g6
sS'director_fees_log'
p1959
g16
sg20
g6
sg21
g6
sg22
g6
sg23
I147950
sS'exercised_stock_options_log'
p1960
F15.932796024112507
sg25
g6
sS'total_stock_value_log'
p1961
F16.29076738090992
sg27
g6
sg28
I11884758
sg29
g6
sS'deferral_payments_log'
p1962
g16
sg31
g6
sS'total_payments_log'
p1963
F12.794695072197223
sg33
I3576206
sS'long_term_incentive_log'
p1964
g16
sg35
I158403
sg36
g1951
sg37
I360300
sg38
g16
sg39
I8308552
sS'loan_advances_log'
p1965
g16
sS'deferred_income_log'
p1966
g16
ssS'HIRKO JOSEPH'
p1967
(dp1968
S'expenses_log'
p1969
F11.264194838653388
sg4
g6
sg5
I10259
sS'bonus_log'
p1970
g16
sg8
I77978
sg9
I01
sg10
g6
sS'restricted_stock_log'
p1971
g16
sg12
S'joe.hirko@enron.com'
p1972
sg14
g6
sS'restricted_stock_deferred_log'
p1973
g16
sS'salary_log'
p1974
g16
sg18
g6
sS'director_fees_log'
p1975
g16
sg20
g6
sg21
g6
sg22
g6
sg23
I2856
sS'exercised_stock_options_log'
p1976
F17.24192285481744
sg25
g6
sS'total_stock_value_log'
p1977
F17.24192285481744
sg27
g6
sg28
I30766064
sg29
g6
sS'deferral_payments_log'
p1978
F9.23600811872476
sg31
g6
sS'total_payments_log'
p1979
F11.419647219388624
sg33
g6
sS'long_term_incentive_log'
p1980
g16
sg35
g6
sg36
g1967
sg37
I91093
sg38
g16
sg39
I30766064
sS'loan_advances_log'
p1981
g16
sS'deferred_income_log'
p1982
g16
ssS'DIETRICH JANET R'
p1983
(dp1984
S'expenses_log'
p1985
F8.153637486385282
sg4
I2572
sg5
g6
sS'bonus_log'
p1986
F13.304686600863562
sg8
I3475
sg9
I00
sg10
g6
sS'restricted_stock_log'
p1987
F12.66054694143939
sg12
S'janet.dietrich@enron.com'
p1988
sg14
I556416
sS'restricted_stock_deferred_log'
p1989
g16
sS'salary_log'
p1990
F12.429620115258357
sg18
g6
sS'director_fees_log'
p1991
g16
sg20
I1902
sg21
g6
sg22
I63
sg23
I473
sS'exercised_stock_options_log'
p1992
F14.25377839203799
sg25
g6
sS'total_stock_value_log'
p1993
F14.438818794933471
sg27
I600000
sg28
I1865087
sg29
I305
sS'deferral_payments_log'
p1994
g16
sg31
I14
sS'total_payments_log'
p1995
F14.159429995220536
sg33
I315068
sS'long_term_incentive_log'
p1996
F13.229273292123265
sg35
I250100
sg36
g1983
sg37
I1410464
sg38
F0.8428842504743833
sg39
I1550019
sS'loan_advances_log'
p1997
g16
sS'deferred_income_log'
p1998
g16
ssS'DERRICK JR. JAMES V'
p1999
(dp2000
S'expenses_log'
p2001
F10.842028893345104
sg4
I2181
sg5
g6
sS'bonus_log'
p2002
F13.592368256649284
sg8
I51124
sg9
I00
sg10
I-1284000
sS'restricted_stock_log'
p2003
F14.396261977907617
sg12
S'james.derrick@enron.com'
p2004
sg14
I484000
sS'restricted_stock_deferred_log'
p2005
g16
sS'salary_log'
p2006
F13.106997931243473
sg18
I-1787380
sS'director_fees_log'
p2007
g16
sg20
I1401
sg21
g6
sg22
I909
sg23
I7482
sS'exercised_stock_options_log'
p2008
F15.993882310132765
sg25
g6
sS'total_stock_value_log'
p2009
F15.993882310132765
sg27
I800000
sg28
I8831913
sg29
I64
sS'deferral_payments_log'
p2010
g16
sg31
I20
sS'total_payments_log'
p2011
F13.219457419724856
sg33
I1787380
sS'long_term_incentive_log'
p2012
F13.089842251812337
sg35
I492375
sg36
g1999
sg37
I550981
sg38
F0.48058252427184467
sg39
I8831913
sS'loan_advances_log'
p2013
g16
sS'deferred_income_log'
p2014
g16
ssS'FREVERT MARK A'
p2015
(dp2016
S'expenses_log'
p2017
F11.373525457088878
sg4
I3275
sg5
I6426990
sS'bonus_log'
p2018
F14.508658238524095
sg8
I86987
sg9
I00
sg10
I-3367011
sS'restricted_stock_log'
p2019
F15.247893341596143
sg12
S'mark.frevert@enron.com'
p2020
sg14
I1617011
sS'restricted_stock_deferred_log'
p2021
g16
sS'salary_log'
p2022
F13.874659267628592
sg18
g6
sS'director_fees_log'
p2023
g16
sg20
I2979
sg21
I2000000
sg22
I21
sg23
I7427621
sS'exercised_stock_options_log'
p2024
F16.16053416221109
sg25
g6
sS'total_stock_value_log'
p2025
F16.498050522312557
sg27
I2000000
sg28
I14622185
sg29
I242
sS'deferral_payments_log'
p2026
F15.676017024010138
sg31
I6
sS'total_payments_log'
p2027
F16.663469415316317
sg33
I4188667
sS'long_term_incentive_log'
p2028
F14.296090559681986
sg35
I1060932
sg36
g2015
sg37
I17252530
sg38
F0.9790655339805825
sg39
I10433518
sS'loan_advances_log'
p2029
F14.508658238524095
sS'deferred_income_log'
p2030
g16
ssS'PAI LOU L'
p2031
(dp2032
S'expenses_log'
p2033
F10.374990057905599
sg4
g6
sg5
g6
sS'bonus_log'
p2034
F13.815511557963774
sg8
I32047
sg9
I00
sg10
g6
sS'restricted_stock_log'
p2035
F15.950122343939707
sg12
S'lou.pai@enron.com'
p2036
sg14
g6
sS'restricted_stock_deferred_log'
p2037
g16
sS'salary_log'
p2038
F12.475641662555027
sg18
g6
sS'director_fees_log'
p2039
g16
sg20
g6
sg21
g6
sg22
g6
sg23
I1829457
sS'exercised_stock_options_log'
p2040
F16.547548603040585
sg25
g6
sS'total_stock_value_log'
p2041
F16.985949258337204
sg27
I1000000
sg28
I23817930
sg29
g6
sS'deferral_payments_log'
p2042
g16
sg31
g6
sS'total_payments_log'
p2043
F14.954427587399978
sg33
I8453763
sS'long_term_incentive_log'
p2044
g16
sg35
I261879
sg36
g2031
sg37
I3123383
sg38
g16
sg39
I15364167
sS'loan_advances_log'
p2045
g16
sS'deferred_income_log'
p2046
g16
ssS'BAY FRANKLIN R'
p2047
(dp2048
S'expenses_log'
p2049
F11.768675596513079
sg4
g6
sg5
I260455
sS'bonus_log'
p2050
F12.899222326086994
sg8
I129142
sg9
I00
sg10
I-201641
sS'restricted_stock_log'
p2051
F11.889970522213316
sg12
S'frank.bay@enron.com'
p2052
sg14
g6
sS'restricted_stock_deferred_log'
p2053
g16
sS'salary_log'
p2054
F12.387026600916823
sg18
I-82782
sS'director_fees_log'
p2055
g16
sg20
g6
sg21
g6
sg22
g6
sg23
I69
sS'exercised_stock_options_log'
p2056
g16
sg25
g6
sS'total_stock_value_log'
p2057
F11.051128072271592
sg27
I400000
sg28
I63014
sg29
g6
sS'deferral_payments_log'
p2058
F12.470189219959247
sg31
g6
sS'total_payments_log'
p2059
F13.626402424365288
sg33
I145796
sS'long_term_incentive_log'
p2060
g16
sg35
I239671
sg36
g2047
sg37
I827696
sg38
g16
sg39
g6
sS'loan_advances_log'
p2061
g16
sS'deferred_income_log'
p2062
g16
ssS'HAYSLETT RODERICK J'
p2063
(dp2064
S'expenses_log'
p2065
g16
sg4
I2649
sg5
g6
sS'bonus_log'
p2066
g16
sg8
g6
sg9
I00
sg10
g6
sS'restricted_stock_log'
p2067
F12.756111290112168
sg12
S'rod.hayslett@enron.com'
p2068
sg14
g6
sS'restricted_stock_deferred_log'
p2069
g16
sS'salary_log'
p2070
g16
sg18
g6
sS'director_fees_log'
p2071
g16
sg20
I571
sg21
g6
sg22
I1061
sg23
g6
sS'exercised_stock_options_log'
p2072
g16
sg25
g6
sS'total_stock_value_log'
p2073
F12.756111290112168
sg27
g6
sg28
I346663
sg29
I35
sS'deferral_payments_log'
p2074
g16
sg31
I38
sS'total_payments_log'
p2075
g16
sg33
I346663
sS'long_term_incentive_log'
p2076
g16
sg35
g6
sg36
g2063
sg37
g6
sg38
F0.17358490566037735
sg39
g6
sS'loan_advances_log'
p2077
g16
sS'deferred_income_log'
p2078
g16
ssS'FUGH JOHN L'
p2079
(dp2080
S'expenses_log'
p2081
g16
sg4
g6
sg5
I50591
sS'bonus_log'
p2082
g16
sg8
g6
sg9
I00
sg10
g6
sS'restricted_stock_log'
p2083
g16
sg12
g6
sg14
g6
sS'restricted_stock_deferred_log'
p2084
g16
sS'salary_log'
p2085
g16
sg18
g6
sS'director_fees_log'
p2086
g16
sg20
g6
sg21
g6
sg22
g6
sg23
g6
sS'exercised_stock_options_log'
p2087
F12.08039036784905
sg25
g6
sS'total_stock_value_log'
p2088
F12.08039036784905
sg27
g6
sg28
I176378
sg29
g6
sS'deferral_payments_log'
p2089
F10.831548740009199
sg31
g6
sS'total_payments_log'
p2090
F10.831548740009199
sg33
g6
sS'long_term_incentive_log'
p2091
g16
sg35
g6
sg36
g2079
sg37
I50591
sg38
g16
sg39
I176378
sS'loan_advances_log'
p2092
g16
sS'deferred_income_log'
p2093
g16
ssS'FALLON JAMES B'
p2094
(dp2095
S'expenses_log'
p2096
F11.471321915115153
sg4
I1755
sg5
g6
sS'bonus_log'
p2097
F14.731801689838349
sg8
I95924
sg9
I00
sg10
g6
sS'restricted_stock_log'
p2098
F14.146354844485206
sg12
S'jim.fallon@enron.com'
p2099
sg14
I374347
sS'restricted_stock_deferred_log'
p2100
g16
sS'salary_log'
p2101
F12.626718605856114
sg18
g6
sS'director_fees_log'
p2102
g16
sg20
I1604
sg21
g6
sg22
I75
sg23
I401481
sS'exercised_stock_options_log'
p2103
F13.753909584671819
sg25
g6
sS'total_stock_value_log'
p2104
F14.662408338330138
sg27
I2500000
sg28
I2332399
sg29
I42
sS'deferral_payments_log'
p2105
g16
sg31
I37
sS'total_payments_log'
p2106
F15.117428522029188
sg33
I1392142
sS'long_term_incentive_log'
p2107
F12.83294112505073
sg35
I304588
sg36
g2094
sg37
I3676340
sg38
F0.919672131147541
sg39
I940257
sS'loan_advances_log'
p2108
g16
sS'deferred_income_log'
p2109
g16
ssS'KOENIG MARK E'
p2110
(dp2111
S'expenses_log'
p2112
F11.752084087681121
sg4
I2374
sg5
g6
sS'bonus_log'
p2113
F13.45883704259595
sg8
I127017
sg9
I01
sg10
g6
sS'restricted_stock_log'
p2114
F14.037308404223461
sg12
S'mark.koenig@enron.com'
p2115
sg14
I300000
sS'restricted_stock_deferred_log'
p2116
g16
sS'salary_log'
p2117
F12.644156594102743
sg18
g6
sS'director_fees_log'
p2118
g16
sg20
I2271
sg21
g6
sg22
I61
sg23
I150458
sS'exercised_stock_options_log'
p2119
F13.417623662529566
sg25
g6
sS'total_stock_value_log'
p2120
F14.467864910245291
sg27
I700000
sg28
I1920055
sg29
I53
sS'deferral_payments_log'
p2121
g16
sg31
I15
sS'total_payments_log'
p2122
F14.277621874683609
sg33
I1248318
sS'long_term_incentive_log'
p2123
F12.611541086966115
sg35
I309946
sg36
g2110
sg37
I1587421
sg38
F0.9605749486652977
sg39
I671737
sS'loan_advances_log'
p2124
g16
sS'deferred_income_log'
p2125
g16
ssS'SAVAGE FRANK'
p2126
(dp2127
S'expenses_log'
p2128
g16
sg4
g6
sg5
g6
sS'bonus_log'
p2129
g16
sg8
g6
sg9
I00
sg10
I-121284
sS'restricted_stock_log'
p2130
g16
sg12
g6
sg14
g6
sS'restricted_stock_deferred_log'
p2131
g16
sS'salary_log'
p2132
g16
sg18
g6
sS'director_fees_log'
p2133
F11.736348977091755
sg20
g6
sg21
g6
sg22
g6
sg23
g6
sS'exercised_stock_options_log'
p2134
g16
sg25
I125034
sS'total_stock_value_log'
p2135
g16
sg27
g6
sg28
g6
sg29
g6
sS'deferral_payments_log'
p2136
g16
sg31
g6
sS'total_payments_log'
p2137
F8.229777750081887
sg33
g6
sS'long_term_incentive_log'
p2138
g16
sg35
g6
sg36
g2126
sg37
I3750
sg38
g16
sg39
g6
sS'loan_advances_log'
p2139
g16
sS'deferred_income_log'
p2140
g16
ssS'IZZO LAWRENCE L'
p2141
(dp2142
S'expenses_log'
p2143
F10.243311309390855
sg4
I496
sg5
g6
sS'bonus_log'
p2144
g16
sg8
I28093
sg9
I00
sg10
g6
sS'restricted_stock_log'
p2145
F15.111554392618618
sg12
S'larry.izzo@enron.com'
p2146
sg14
I312500
sS'restricted_stock_deferred_log'
p2147
g16
sS'salary_log'
p2148
F11.353636607286846
sg18
g6
sS'director_fees_log'
p2149
g16
sg20
I437
sg21
g6
sg22
I19
sg23
I1553729
sS'exercised_stock_options_log'
p2150
F14.588010823847531
sg25
g6
sS'total_stock_value_log'
p2151
F15.576807555097481
sg27
g6
sg28
I5819980
sg29
I28
sS'deferral_payments_log'
p2152
g16
sg31
I5
sS'total_payments_log'
p2153
F14.498403846601052
sg33
I3654808
sS'long_term_incentive_log'
p2154
F12.652362948153474
sg35
I85274
sg36
g2141
sg37
I1979596
sg38
F0.912621359223301
sg39
I2165172
sS'loan_advances_log'
p2155
g16
sS'deferred_income_log'
p2156
g16
ssS'TILNEY ELIZABETH A'
p2157
(dp2158
S'expenses_log'
p2159
g16
sg4
I460
sg5
g6
sS'bonus_log'
p2160
F12.611541086966115
sg8
g6
sg9
I00
sg10
I-575000
sS'restricted_stock_log'
p2161
F13.265238728956906
sg12
S'elizabeth.tilney@enron.com'
p2162
sg14
I275000
sS'restricted_stock_deferred_log'
p2163
g16
sS'salary_log'
p2164
F12.418515144270167
sg18
g6
sS'director_fees_log'
p2165
g16
sg20
I379
sg21
g6
sg22
I19
sg23
I152055
sS'exercised_stock_options_log'
p2166
F13.289995910118773
sg25
g6
sS'total_stock_value_log'
p2167
F13.970840256761145
sg27
I300000
sg28
I1168042
sg29
I10
sS'deferral_payments_log'
p2168
g16
sg31
I11
sS'total_payments_log'
p2169
F12.897703677317212
sg33
I576792
sS'long_term_incentive_log'
p2170
F12.524530013005734
sg35
I247338
sg36
g2157
sg37
I399393
sg38
F0.8350730688935282
sg39
I591250
sS'loan_advances_log'
p2171
g16
sS'deferred_income_log'
p2172
g16
ssS'MARTIN AMANDA K'
p2173
(dp2174
S'expenses_log'
p2175
F9.013351778138825
sg4
I1522
sg5
I85430
sS'bonus_log'
p2176
g16
sg8
I8211
sg9
I00
sg10
g6
sS'restricted_stock_log'
p2177
g16
sg12
S'a..martin@enron.com'
p2178
sg14
I5145434
sS'restricted_stock_deferred_log'
p2179
g16
sS'salary_log'
p2180
F12.764224505302602
sg18
g6
sS'director_fees_log'
p2181
g16
sg20
I477
sg21
g6
sg22
I230
sg23
I2818454
sS'exercised_stock_options_log'
p2182
F14.543207463423578
sg25
g6
sS'total_stock_value_log'
p2183
F14.543207463423578
sg27
g6
sg28
I2070306
sg29
I8
sS'deferral_payments_log'
p2184
F11.35546431156703
sg31
I0
sS'total_payments_log'
p2185
F15.94457727223981
sg33
g6
sS'long_term_incentive_log'
p2186
F15.453620471781253
sg35
I349487
sg36
g2173
sg37
I8407016
sg38
F0.2768264840182648
sg39
I2070306
sS'loan_advances_log'
p2187
g16
sS'deferred_income_log'
p2188
g16
ssS'BUY RICHARD B'
p2189
(dp2190
S'expenses_log'
p2191
g16
sg4
I3523
sg5
I649584
sS'bonus_log'
p2192
F13.710151153416941
sg8
g6
sg9
I00
sg10
I-694862
sS'restricted_stock_log'
p2193
F13.711990569718472
sg12
S'rick.buy@enron.com'
p2194
sg14
I769862
sS'restricted_stock_deferred_log'
p2195
g16
sS'salary_log'
p2196
F12.708504136937753
sg18
g6
sS'director_fees_log'
p2197
g16
sg20
I2333
sg21
g6
sg22
I1053
sg23
I400572
sS'exercised_stock_options_log'
p2198
F14.748781899770936
sg25
g6
sS'total_stock_value_log'
p2199
F15.052280894760901
sg27
I900000
sg28
I3444470
sg29
I156
sS'deferral_payments_log'
p2200
F13.384088976429997
sg31
I71
sS'total_payments_log'
p2201
F14.6723497546867
sg33
I901657
sS'long_term_incentive_log'
p2202
F13.553967855921934
sg35
I330546
sg36
g2189
sg37
I2355702
sg38
F0.5594405594405595
sg39
I2542813
sS'loan_advances_log'
p2203
g16
sS'deferred_income_log'
p2204
g16
ssS'GRAMM WENDY L'
p2205
(dp2206
S'expenses_log'
p2207
g16
sg4
g6
sg5
g6
sS'bonus_log'
p2208
g16
sg8
g6
sg9
I00
sg10
g6
sS'restricted_stock_log'
p2209
g16
sg12
g6
sg14
g6
sS'restricted_stock_deferred_log'
p2210
g16
sS'salary_log'
p2211
g16
sg18
g6
sS'director_fees_log'
p2212
F11.689337930756816
sg20
g6
sg21
g6
sg22
g6
sg23
g6
sS'exercised_stock_options_log'
p2213
g16
sg25
I119292
sS'total_stock_value_log'
p2214
g16
sg27
g6
sg28
g6
sg29
g6
sS'deferral_payments_log'
p2215
g16
sg31
g6
sS'total_payments_log'
p2216
F11.689337930756816
sg33
g6
sS'long_term_incentive_log'
p2217
g16
sg35
g6
sg36
g2205
sg37
I119292
sg38
g16
sg39
g6
sS'loan_advances_log'
p2218
g16
sS'deferred_income_log'
p2219
g16
ssS'CAUSEY RICHARD A'
p2220
(dp2221
S'expenses_log'
p2222
F10.331203269579111
sg4
I1892
sg5
g6
sS'bonus_log'
p2223
F13.815511557963774
sg8
I30674
sg9
I01
sg10
I-235000
sS'restricted_stock_log'
p2224
F14.732626549218214
sg12
S'richard.causey@enron.com'
p2225
sg14
I350000
sS'restricted_stock_deferred_log'
p2226
g16
sS'salary_log'
p2227
F12.936491525765353
sg18
g6
sS'director_fees_log'
p2228
g16
sg20
I1585
sg21
g6
sg22
I49
sg23
I307895
sS'exercised_stock_options_log'
p2229
g16
sg25
g6
sS'total_stock_value_log'
p2230
F14.732626549218214
sg27
I1000000
sg28
I2502063
sg29
I58
sS'deferral_payments_log'
p2231
g16
sg31
I12
sS'total_payments_log'
p2232
F14.440785132163048
sg33
I2502063
sS'long_term_incentive_log'
p2233
F12.765691290604371
sg35
I415189
sg36
g2220
sg37
I1868758
sg38
F0.8526532715095312
sg39
g6
sS'loan_advances_log'
p2234
g16
sS'deferred_income_log'
p2235
g16
ssS'TAYLOR MITCHELL S'
p2236
(dp2237
S'expenses_log'
p2238
g16
sg4
I533
sg5
I227449
sS'bonus_log'
p2239
F13.304686600863562
sg8
g6
sg9
I00
sg10
g6
sS'restricted_stock_log'
p2240
F13.242453083981967
sg12
S'mitchell.taylor@enron.com'
p2241
sg14
g6
sS'restricted_stock_deferred_log'
p2242
g16
sS'salary_log'
p2243
F12.4882960967803
sg18
g6
sS'director_fees_log'
p2244
g16
sg20
I300
sg21
g6
sg22
I29
sg23
g6
sS'exercised_stock_options_log'
p2245
F14.972785073622767
sg25
g6
sS'total_stock_value_log'
p2246
F15.13594525896001
sg27
I600000
sg28
I3745048
sg29
I0
sS'deferral_payments_log'
p2247
F12.33468571299815
sg31
I0
sS'total_payments_log'
p2248
F13.904129309102316
sg33
I563798
sS'long_term_incentive_log'
p2249
g16
sg35
I265214
sg36
g2236
sg37
I1092663
sg38
F0.5338078291814946
sg39
I3181250
sS'loan_advances_log'
p2250
g16
sS'deferred_income_log'
p2251
g16
ssS'DONAHUE JR JEFFREY M'
p2252
(dp2253
S'expenses_log'
p2254
F11.474901635266104
sg4
I865
sg5
g6
sS'bonus_log'
p2255
F13.592368256649284
sg8
I96268
sg9
I00
sg10
I-300000
sS'restricted_stock_log'
p2256
F12.66054694143939
sg12
S'jeff.donahue@enron.com'
p2257
sg14
g6
sS'restricted_stock_deferred_log'
p2258
g16
sS'salary_log'
p2259
F12.537539519052972
sg18
g6
sS'director_fees_log'
p2260
g16
sg20
I772
sg21
g6
sg22
I22
sg23
I891
sS'exercised_stock_options_log'
p2261
F13.54883431024487
sg25
g6
sS'total_stock_value_log'
p2262
F13.893386920806389
sg27
I800000
sg28
I1080988
sg29
I188
sS'deferral_payments_log'
p2263
g16
sg31
I11
sS'total_payments_log'
p2264
F13.682848501643138
sg33
I315068
sS'long_term_incentive_log'
p2265
g16
sg35
I278601
sg36
g2252
sg37
I875760
sg38
F1.0947012401352876
sg39
I765920
sS'loan_advances_log'
p2266
g16
sS'deferred_income_log'
p2267
g16
ssS'GLISAN JR BEN F'
p2268
(dp2269
S'expenses_log'
p2270
F11.743870505376517
sg4
I873
sg5
g6
sS'bonus_log'
p2271
F13.304686600863562
sg8
I125978
sg9
I01
sg10
g6
sS'restricted_stock_log'
p2272
F12.883646691864817
sg12
S'ben.glisan@enron.com'
p2273
sg14
I71023
sS'restricted_stock_deferred_log'
p2274
g16
sS'salary_log'
p2275
F12.52443910011295
sg18
g6
sS'director_fees_log'
p2276
g16
sg20
I874
sg21
g6
sg22
I16
sg23
I200308
sS'exercised_stock_options_log'
p2277
F12.860294469314848
sg25
g6
sS'total_stock_value_log'
p2278
F13.565184640945082
sg27
I600000
sg28
I778546
sg29
I52
sS'deferral_payments_log'
p2279
g16
sg31
I6
sS'total_payments_log'
p2280
F14.056325054389045
sg33
I393818
sS'long_term_incentive_log'
p2281
F11.170773127073817
sg35
I274975
sg36
g2268
sg37
I1272284
sg38
F1.048368953880765
sg39
I384728
sS'loan_advances_log'
p2282
g16
sS'deferred_income_log'
p2283
g16
ss.