(lp0
S'poi'
p1
aS'salary'
p2
aS'loan_advances'
p3
aS'total_stock_value_log'
p4
aS'restricted_stock_deferred'
p5
aS'deferral_payments'
p6
aS'total_payments'
p7
aS'bonus_log'
p8
aS'bonus'
p9
aS'director_fees'
p10
aS'salary_log'
p11
aS'poi_ratio_messages'
p12
aS'total_stock_value'
p13
aS'expenses'
p14
aS'exercised_stock_options'
p15
aS'exercised_stock_options_log'
p16
aS'total_payments_log'
p17
aS'deferred_income'
p18
aS'restricted_stock'
p19
aS'long_term_incentive'
p20
a.